SF:/home/seb/Code/Public/Rust/rlg/src/config.rs
FN:284,_RINvMs0_NtCs3sxNJrCz760_3rlg6configNtB6_6Config10load_asyncpEB8_
FN:344,_RINvMs0_NtCs3sxNJrCz760_3rlg6configNtB6_6Config12save_to_filepEB8_
FN:317,_RINvMs0_NtCs3sxNJrCz760_3rlg6configNtB6_6Config3getpEB8_
FN:365,_RINvMs0_NtCs3sxNJrCz760_3rlg6configNtB6_6Config3setpEB8_
FN:286,_RNCINvMs0_NtCs3sxNJrCz760_3rlg6configNtB8_6Config10load_asyncpE0Ba_
FN:349,_RNCINvMs0_NtCs3sxNJrCz760_3rlg6configNtB8_6Config12save_to_filepE0Ba_
FN:355,_RNCINvMs0_NtCs3sxNJrCz760_3rlg6configNtB8_6Config12save_to_filepEs_0Ba_
FN:371,_RNCINvMs0_NtCs3sxNJrCz760_3rlg6configNtB8_6Config3setpE0Ba_
FN:391,_RNCINvMs0_NtCs3sxNJrCz760_3rlg6configNtB8_6Config3setpEs0_0Ba_
FN:401,_RNCINvMs0_NtCs3sxNJrCz760_3rlg6configNtB8_6Config3setpEs1_0Ba_
FN:412,_RNCINvMs0_NtCs3sxNJrCz760_3rlg6configNtB8_6Config3setpEs2_0Ba_
FN:423,_RNCINvMs0_NtCs3sxNJrCz760_3rlg6configNtB8_6Config3setpEs3_0Ba_
FN:434,_RNCINvMs0_NtCs3sxNJrCz760_3rlg6configNtB8_6Config3setpEs4_0Ba_
FN:444,_RNCINvMs0_NtCs3sxNJrCz760_3rlg6configNtB8_6Config3setpEs5_0Ba_
FN:455,_RNCINvMs0_NtCs3sxNJrCz760_3rlg6configNtB8_6Config3setpEs6_0Ba_
FN:381,_RNCINvMs0_NtCs3sxNJrCz760_3rlg6configNtB8_6Config3setpEs_0Ba_
FN:288,_RNCNCINvMs0_NtCs3sxNJrCz760_3rlg6configNtBa_6Config10load_asyncpE00Bc_
FN:292,_RNCNCINvMs0_NtCs3sxNJrCz760_3rlg6configNtBa_6Config10load_asyncpE0s_0Bc_
FN:372,_RNCNCINvMs0_NtCs3sxNJrCz760_3rlg6configNtBa_6Config3setpE00Bc_
FN:617,_RNCNCNvMs0_NtCs3sxNJrCz760_3rlg6configNtB9_6Config16hot_reload_async00Bb_
FN:626,_RNCNCNvMs0_NtCs3sxNJrCz760_3rlg6configNtB9_6Config16hot_reload_async0s_0Bb_
FN:613,_RNCNvMs0_NtCs3sxNJrCz760_3rlg6configNtB7_6Config16hot_reload_async0B9_
FN:581,_RNCNvMs0_NtCs3sxNJrCz760_3rlg6configNtB7_6Config24validate_network_address0B9_
FN:588,_RNCNvMs0_NtCs3sxNJrCz760_3rlg6configNtB7_6Config24validate_network_addresss_0B9_
FN:752,_RNCNvMs0_NtCs3sxNJrCz760_3rlg6configNtB7_6Config5merge0B9_
FN:544,_RNCNvMs0_NtCs3sxNJrCz760_3rlg6configNtB7_6Config8validate0B9_
FN:555,_RNCNvMs0_NtCs3sxNJrCz760_3rlg6configNtB7_6Config8validates_0B9_
FN:173,_RNCNvNtCs3sxNJrCz760_3rlg6config17parse_nonzero_u640B5_
FN:187,_RNCNvNtCs3sxNJrCz760_3rlg6config17parse_nonzero_u64s0_0B5_
FN:180,_RNCNvNtCs3sxNJrCz760_3rlg6config17parse_nonzero_u64s_0B5_
FN:133,_RNCNvXNtCs3sxNJrCz760_3rlg6configNtB4_11LogRotationNtNtNtCs7dTDQl1DYhd_4core3str6traits7FromStr8from_str0B6_
FN:135,_RNCNvXNtCs3sxNJrCz760_3rlg6configNtB4_11LogRotationNtNtNtCs7dTDQl1DYhd_4core3str6traits7FromStr8from_strs_0B6_
FN:763,_RNCNvXs1_NtCs3sxNJrCz760_3rlg6configNtB7_6ConfigINtNtCs7dTDQl1DYhd_4core7convert7TryFromNtNtCs9hLsKkECTMM_3std3env4VarsE8try_from0B9_
FN:598,_RNvMs0_NtCs3sxNJrCz760_3rlg6configNtB5_6Config15expand_env_vars
FN:610,_RNvMs0_NtCs3sxNJrCz760_3rlg6configNtB5_6Config16hot_reload_async
FN:566,_RNvMs0_NtCs3sxNJrCz760_3rlg6configNtB5_6Config24validate_network_address
FN:661,_RNvMs0_NtCs3sxNJrCz760_3rlg6configNtB5_6Config4diff
FN:739,_RNvMs0_NtCs3sxNJrCz760_3rlg6configNtB5_6Config5merge
FN:474,_RNvMs0_NtCs3sxNJrCz760_3rlg6configNtB5_6Config8validate
FN:253,_RNvNtCs3sxNJrCz760_3rlg6config15default_profile
FN:250,_RNvNtCs3sxNJrCz760_3rlg6config15default_version
FN:168,_RNvNtCs3sxNJrCz760_3rlg6config17parse_nonzero_u64
FN:259,_RNvNtCs3sxNJrCz760_3rlg6config18default_log_format
FN:256,_RNvNtCs3sxNJrCz760_3rlg6config21default_log_file_path
FN:262,_RNvNtCs3sxNJrCz760_3rlg6config28default_logging_destinations
FN:122,_RNvXNtCs3sxNJrCz760_3rlg6configNtB2_11LogRotationNtNtNtCs7dTDQl1DYhd_4core3str6traits7FromStr8from_str
FN:761,_RNvXs1_NtCs3sxNJrCz760_3rlg6configNtB5_6ConfigINtNtCs7dTDQl1DYhd_4core7convert7TryFromNtNtCs9hLsKkECTMM_3std3env4VarsE8try_from
FN:768,_RNvXs2_NtCs3sxNJrCz760_3rlg6configNtB5_11LogRotationNtNtCs7dTDQl1DYhd_4core3fmt7Display3fmt
FN:267,_RNvXs_NtCs3sxNJrCz760_3rlg6configNtB4_6ConfigNtNtCs7dTDQl1DYhd_4core7default7Default7default
FN:284,_RINvMs0_NtCsj4J04da6EGf_3rlg6configNtB6_6Config10load_asyncRNtNtCs9hLsKkECTMM_3std4path7PathBufECshfQVmgc5i9r_11test_config
FN:284,_RINvMs0_NtCsj4J04da6EGf_3rlg6configNtB6_6Config10load_asyncRNtNtCsdB7fS8jepxw_5alloc6string6StringECshfQVmgc5i9r_11test_config
FN:344,_RINvMs0_NtCsj4J04da6EGf_3rlg6configNtB6_6Config12save_to_fileRNtNtCs9hLsKkECTMM_3std4path7PathBufECshfQVmgc5i9r_11test_config
FN:317,_RINvMs0_NtCsj4J04da6EGf_3rlg6configNtB6_6Config3getINtNtCs7dTDQl1DYhd_4core6option6OptionNtB6_11LogRotationEECshfQVmgc5i9r_11test_config
FN:317,_RINvMs0_NtCsj4J04da6EGf_3rlg6configNtB6_6Config3getINtNtCsdB7fS8jepxw_5alloc3vec3VecNtB6_18LoggingDestinationEECshfQVmgc5i9r_11test_config
FN:317,_RINvMs0_NtCsj4J04da6EGf_3rlg6configNtB6_6Config3getINtNtNtNtCs9hLsKkECTMM_3std11collections4hash3map7HashMapNtNtCsdB7fS8jepxw_5alloc6string6StringB1I_EECshfQVmgc5i9r_11test_config
FN:317,_RINvMs0_NtCsj4J04da6EGf_3rlg6configNtB6_6Config3getNtNtB8_9log_level8LogLevelECshfQVmgc5i9r_11test_config
FN:317,_RINvMs0_NtCsj4J04da6EGf_3rlg6configNtB6_6Config3getNtNtCs9hLsKkECTMM_3std4path7PathBufECshfQVmgc5i9r_11test_config
FN:317,_RINvMs0_NtCsj4J04da6EGf_3rlg6configNtB6_6Config3getNtNtCsdB7fS8jepxw_5alloc6string6StringECshfQVmgc5i9r_11test_config
FN:365,_RINvMs0_NtCsj4J04da6EGf_3rlg6configNtB6_6Config3setINtNtCs7dTDQl1DYhd_4core6option6OptionNtB6_11LogRotationEECshfQVmgc5i9r_11test_config
FN:365,_RINvMs0_NtCsj4J04da6EGf_3rlg6configNtB6_6Config3setINtNtCsdB7fS8jepxw_5alloc3vec3VecNtB6_18LoggingDestinationEECshfQVmgc5i9r_11test_config
FN:365,_RINvMs0_NtCsj4J04da6EGf_3rlg6configNtB6_6Config3setINtNtNtNtCs9hLsKkECTMM_3std11collections4hash3map7HashMapNtNtCsdB7fS8jepxw_5alloc6string6StringB1I_EECshfQVmgc5i9r_11test_config
FN:365,_RINvMs0_NtCsj4J04da6EGf_3rlg6configNtB6_6Config3setNtNtB8_9log_level8LogLevelECshfQVmgc5i9r_11test_config
FN:365,_RINvMs0_NtCsj4J04da6EGf_3rlg6configNtB6_6Config3setNtNtCs9hLsKkECTMM_3std4path7PathBufECshfQVmgc5i9r_11test_config
FN:365,_RINvMs0_NtCsj4J04da6EGf_3rlg6configNtB6_6Config3setReECshfQVmgc5i9r_11test_config
FN:286,_RNCINvMs0_NtCsj4J04da6EGf_3rlg6configNtB8_6Config10load_asyncRNtNtCs9hLsKkECTMM_3std4path7PathBufE0CshfQVmgc5i9r_11test_config
FN:286,_RNCINvMs0_NtCsj4J04da6EGf_3rlg6configNtB8_6Config10load_asyncRNtNtCsdB7fS8jepxw_5alloc6string6StringE0CshfQVmgc5i9r_11test_config
FN:349,_RNCINvMs0_NtCsj4J04da6EGf_3rlg6configNtB8_6Config12save_to_fileRNtNtCs9hLsKkECTMM_3std4path7PathBufE0CshfQVmgc5i9r_11test_config
FN:355,_RNCINvMs0_NtCsj4J04da6EGf_3rlg6configNtB8_6Config12save_to_fileRNtNtCs9hLsKkECTMM_3std4path7PathBufEs_0CshfQVmgc5i9r_11test_config
FN:371,_RNCINvMs0_NtCsj4J04da6EGf_3rlg6configNtB8_6Config3setINtNtCs7dTDQl1DYhd_4core6option6OptionNtB8_11LogRotationEE0CshfQVmgc5i9r_11test_config
FN:391,_RNCINvMs0_NtCsj4J04da6EGf_3rlg6configNtB8_6Config3setINtNtCs7dTDQl1DYhd_4core6option6OptionNtB8_11LogRotationEEs0_0CshfQVmgc5i9r_11test_config
FN:401,_RNCINvMs0_NtCsj4J04da6EGf_3rlg6configNtB8_6Config3setINtNtCs7dTDQl1DYhd_4core6option6OptionNtB8_11LogRotationEEs1_0CshfQVmgc5i9r_11test_config
FN:412,_RNCINvMs0_NtCsj4J04da6EGf_3rlg6configNtB8_6Config3setINtNtCs7dTDQl1DYhd_4core6option6OptionNtB8_11LogRotationEEs2_0CshfQVmgc5i9r_11test_config
FN:423,_RNCINvMs0_NtCsj4J04da6EGf_3rlg6configNtB8_6Config3setINtNtCs7dTDQl1DYhd_4core6option6OptionNtB8_11LogRotationEEs3_0CshfQVmgc5i9r_11test_config
FN:434,_RNCINvMs0_NtCsj4J04da6EGf_3rlg6configNtB8_6Config3setINtNtCs7dTDQl1DYhd_4core6option6OptionNtB8_11LogRotationEEs4_0CshfQVmgc5i9r_11test_config
FN:444,_RNCINvMs0_NtCsj4J04da6EGf_3rlg6configNtB8_6Config3setINtNtCs7dTDQl1DYhd_4core6option6OptionNtB8_11LogRotationEEs5_0CshfQVmgc5i9r_11test_config
FN:455,_RNCINvMs0_NtCsj4J04da6EGf_3rlg6configNtB8_6Config3setINtNtCs7dTDQl1DYhd_4core6option6OptionNtB8_11LogRotationEEs6_0CshfQVmgc5i9r_11test_config
FN:381,_RNCINvMs0_NtCsj4J04da6EGf_3rlg6configNtB8_6Config3setINtNtCs7dTDQl1DYhd_4core6option6OptionNtB8_11LogRotationEEs_0CshfQVmgc5i9r_11test_config
FN:371,_RNCINvMs0_NtCsj4J04da6EGf_3rlg6configNtB8_6Config3setINtNtCsdB7fS8jepxw_5alloc3vec3VecNtB8_18LoggingDestinationEE0CshfQVmgc5i9r_11test_config
FN:391,_RNCINvMs0_NtCsj4J04da6EGf_3rlg6configNtB8_6Config3setINtNtCsdB7fS8jepxw_5alloc3vec3VecNtB8_18LoggingDestinationEEs0_0CshfQVmgc5i9r_11test_config
FN:401,_RNCINvMs0_NtCsj4J04da6EGf_3rlg6configNtB8_6Config3setINtNtCsdB7fS8jepxw_5alloc3vec3VecNtB8_18LoggingDestinationEEs1_0CshfQVmgc5i9r_11test_config
FN:412,_RNCINvMs0_NtCsj4J04da6EGf_3rlg6configNtB8_6Config3setINtNtCsdB7fS8jepxw_5alloc3vec3VecNtB8_18LoggingDestinationEEs2_0CshfQVmgc5i9r_11test_config
FN:423,_RNCINvMs0_NtCsj4J04da6EGf_3rlg6configNtB8_6Config3setINtNtCsdB7fS8jepxw_5alloc3vec3VecNtB8_18LoggingDestinationEEs3_0CshfQVmgc5i9r_11test_config
FN:434,_RNCINvMs0_NtCsj4J04da6EGf_3rlg6configNtB8_6Config3setINtNtCsdB7fS8jepxw_5alloc3vec3VecNtB8_18LoggingDestinationEEs4_0CshfQVmgc5i9r_11test_config
FN:444,_RNCINvMs0_NtCsj4J04da6EGf_3rlg6configNtB8_6Config3setINtNtCsdB7fS8jepxw_5alloc3vec3VecNtB8_18LoggingDestinationEEs5_0CshfQVmgc5i9r_11test_config
FN:455,_RNCINvMs0_NtCsj4J04da6EGf_3rlg6configNtB8_6Config3setINtNtCsdB7fS8jepxw_5alloc3vec3VecNtB8_18LoggingDestinationEEs6_0CshfQVmgc5i9r_11test_config
FN:381,_RNCINvMs0_NtCsj4J04da6EGf_3rlg6configNtB8_6Config3setINtNtCsdB7fS8jepxw_5alloc3vec3VecNtB8_18LoggingDestinationEEs_0CshfQVmgc5i9r_11test_config
FN:371,_RNCINvMs0_NtCsj4J04da6EGf_3rlg6configNtB8_6Config3setINtNtNtNtCs9hLsKkECTMM_3std11collections4hash3map7HashMapNtNtCsdB7fS8jepxw_5alloc6string6StringB1K_EE0CshfQVmgc5i9r_11test_config
FN:391,_RNCINvMs0_NtCsj4J04da6EGf_3rlg6configNtB8_6Config3setINtNtNtNtCs9hLsKkECTMM_3std11collections4hash3map7HashMapNtNtCsdB7fS8jepxw_5alloc6string6StringB1K_EEs0_0CshfQVmgc5i9r_11test_config
FN:401,_RNCINvMs0_NtCsj4J04da6EGf_3rlg6configNtB8_6Config3setINtNtNtNtCs9hLsKkECTMM_3std11collections4hash3map7HashMapNtNtCsdB7fS8jepxw_5alloc6string6StringB1K_EEs1_0CshfQVmgc5i9r_11test_config
FN:412,_RNCINvMs0_NtCsj4J04da6EGf_3rlg6configNtB8_6Config3setINtNtNtNtCs9hLsKkECTMM_3std11collections4hash3map7HashMapNtNtCsdB7fS8jepxw_5alloc6string6StringB1K_EEs2_0CshfQVmgc5i9r_11test_config
FN:423,_RNCINvMs0_NtCsj4J04da6EGf_3rlg6configNtB8_6Config3setINtNtNtNtCs9hLsKkECTMM_3std11collections4hash3map7HashMapNtNtCsdB7fS8jepxw_5alloc6string6StringB1K_EEs3_0CshfQVmgc5i9r_11test_config
FN:434,_RNCINvMs0_NtCsj4J04da6EGf_3rlg6configNtB8_6Config3setINtNtNtNtCs9hLsKkECTMM_3std11collections4hash3map7HashMapNtNtCsdB7fS8jepxw_5alloc6string6StringB1K_EEs4_0CshfQVmgc5i9r_11test_config
FN:444,_RNCINvMs0_NtCsj4J04da6EGf_3rlg6configNtB8_6Config3setINtNtNtNtCs9hLsKkECTMM_3std11collections4hash3map7HashMapNtNtCsdB7fS8jepxw_5alloc6string6StringB1K_EEs5_0CshfQVmgc5i9r_11test_config
FN:455,_RNCINvMs0_NtCsj4J04da6EGf_3rlg6configNtB8_6Config3setINtNtNtNtCs9hLsKkECTMM_3std11collections4hash3map7HashMapNtNtCsdB7fS8jepxw_5alloc6string6StringB1K_EEs6_0CshfQVmgc5i9r_11test_config
FN:381,_RNCINvMs0_NtCsj4J04da6EGf_3rlg6configNtB8_6Config3setINtNtNtNtCs9hLsKkECTMM_3std11collections4hash3map7HashMapNtNtCsdB7fS8jepxw_5alloc6string6StringB1K_EEs_0CshfQVmgc5i9r_11test_config
FN:371,_RNCINvMs0_NtCsj4J04da6EGf_3rlg6configNtB8_6Config3setNtNtBa_9log_level8LogLevelE0CshfQVmgc5i9r_11test_config
FN:391,_RNCINvMs0_NtCsj4J04da6EGf_3rlg6configNtB8_6Config3setNtNtBa_9log_level8LogLevelEs0_0CshfQVmgc5i9r_11test_config
FN:401,_RNCINvMs0_NtCsj4J04da6EGf_3rlg6configNtB8_6Config3setNtNtBa_9log_level8LogLevelEs1_0CshfQVmgc5i9r_11test_config
FN:412,_RNCINvMs0_NtCsj4J04da6EGf_3rlg6configNtB8_6Config3setNtNtBa_9log_level8LogLevelEs2_0CshfQVmgc5i9r_11test_config
FN:423,_RNCINvMs0_NtCsj4J04da6EGf_3rlg6configNtB8_6Config3setNtNtBa_9log_level8LogLevelEs3_0CshfQVmgc5i9r_11test_config
FN:434,_RNCINvMs0_NtCsj4J04da6EGf_3rlg6configNtB8_6Config3setNtNtBa_9log_level8LogLevelEs4_0CshfQVmgc5i9r_11test_config
FN:444,_RNCINvMs0_NtCsj4J04da6EGf_3rlg6configNtB8_6Config3setNtNtBa_9log_level8LogLevelEs5_0CshfQVmgc5i9r_11test_config
FN:455,_RNCINvMs0_NtCsj4J04da6EGf_3rlg6configNtB8_6Config3setNtNtBa_9log_level8LogLevelEs6_0CshfQVmgc5i9r_11test_config
FN:381,_RNCINvMs0_NtCsj4J04da6EGf_3rlg6configNtB8_6Config3setNtNtBa_9log_level8LogLevelEs_0CshfQVmgc5i9r_11test_config
FN:371,_RNCINvMs0_NtCsj4J04da6EGf_3rlg6configNtB8_6Config3setNtNtCs9hLsKkECTMM_3std4path7PathBufE0CshfQVmgc5i9r_11test_config
FN:391,_RNCINvMs0_NtCsj4J04da6EGf_3rlg6configNtB8_6Config3setNtNtCs9hLsKkECTMM_3std4path7PathBufEs0_0CshfQVmgc5i9r_11test_config
FN:401,_RNCINvMs0_NtCsj4J04da6EGf_3rlg6configNtB8_6Config3setNtNtCs9hLsKkECTMM_3std4path7PathBufEs1_0CshfQVmgc5i9r_11test_config
FN:412,_RNCINvMs0_NtCsj4J04da6EGf_3rlg6configNtB8_6Config3setNtNtCs9hLsKkECTMM_3std4path7PathBufEs2_0CshfQVmgc5i9r_11test_config
FN:423,_RNCINvMs0_NtCsj4J04da6EGf_3rlg6configNtB8_6Config3setNtNtCs9hLsKkECTMM_3std4path7PathBufEs3_0CshfQVmgc5i9r_11test_config
FN:434,_RNCINvMs0_NtCsj4J04da6EGf_3rlg6configNtB8_6Config3setNtNtCs9hLsKkECTMM_3std4path7PathBufEs4_0CshfQVmgc5i9r_11test_config
FN:444,_RNCINvMs0_NtCsj4J04da6EGf_3rlg6configNtB8_6Config3setNtNtCs9hLsKkECTMM_3std4path7PathBufEs5_0CshfQVmgc5i9r_11test_config
FN:455,_RNCINvMs0_NtCsj4J04da6EGf_3rlg6configNtB8_6Config3setNtNtCs9hLsKkECTMM_3std4path7PathBufEs6_0CshfQVmgc5i9r_11test_config
FN:381,_RNCINvMs0_NtCsj4J04da6EGf_3rlg6configNtB8_6Config3setNtNtCs9hLsKkECTMM_3std4path7PathBufEs_0CshfQVmgc5i9r_11test_config
FN:371,_RNCINvMs0_NtCsj4J04da6EGf_3rlg6configNtB8_6Config3setReE0CshfQVmgc5i9r_11test_config
FN:391,_RNCINvMs0_NtCsj4J04da6EGf_3rlg6configNtB8_6Config3setReEs0_0CshfQVmgc5i9r_11test_config
FN:401,_RNCINvMs0_NtCsj4J04da6EGf_3rlg6configNtB8_6Config3setReEs1_0CshfQVmgc5i9r_11test_config
FN:412,_RNCINvMs0_NtCsj4J04da6EGf_3rlg6configNtB8_6Config3setReEs2_0CshfQVmgc5i9r_11test_config
FN:423,_RNCINvMs0_NtCsj4J04da6EGf_3rlg6configNtB8_6Config3setReEs3_0CshfQVmgc5i9r_11test_config
FN:434,_RNCINvMs0_NtCsj4J04da6EGf_3rlg6configNtB8_6Config3setReEs4_0CshfQVmgc5i9r_11test_config
FN:444,_RNCINvMs0_NtCsj4J04da6EGf_3rlg6configNtB8_6Config3setReEs5_0CshfQVmgc5i9r_11test_config
FN:455,_RNCINvMs0_NtCsj4J04da6EGf_3rlg6configNtB8_6Config3setReEs6_0CshfQVmgc5i9r_11test_config
FN:381,_RNCINvMs0_NtCsj4J04da6EGf_3rlg6configNtB8_6Config3setReEs_0CshfQVmgc5i9r_11test_config
FN:288,_RNCNCINvMs0_NtCsj4J04da6EGf_3rlg6configNtBa_6Config10load_asyncRNtNtCs9hLsKkECTMM_3std4path7PathBufE00CshfQVmgc5i9r_11test_config
FN:292,_RNCNCINvMs0_NtCsj4J04da6EGf_3rlg6configNtBa_6Config10load_asyncRNtNtCs9hLsKkECTMM_3std4path7PathBufE0s_0CshfQVmgc5i9r_11test_config
FN:288,_RNCNCINvMs0_NtCsj4J04da6EGf_3rlg6configNtBa_6Config10load_asyncRNtNtCsdB7fS8jepxw_5alloc6string6StringE00CshfQVmgc5i9r_11test_config
FN:292,_RNCNCINvMs0_NtCsj4J04da6EGf_3rlg6configNtBa_6Config10load_asyncRNtNtCsdB7fS8jepxw_5alloc6string6StringE0s_0CshfQVmgc5i9r_11test_config
FN:372,_RNCNCINvMs0_NtCsj4J04da6EGf_3rlg6configNtBa_6Config3setINtNtCs7dTDQl1DYhd_4core6option6OptionNtBa_11LogRotationEE00CshfQVmgc5i9r_11test_config
FN:372,_RNCNCINvMs0_NtCsj4J04da6EGf_3rlg6configNtBa_6Config3setINtNtCsdB7fS8jepxw_5alloc3vec3VecNtBa_18LoggingDestinationEE00CshfQVmgc5i9r_11test_config
FN:372,_RNCNCINvMs0_NtCsj4J04da6EGf_3rlg6configNtBa_6Config3setINtNtNtNtCs9hLsKkECTMM_3std11collections4hash3map7HashMapNtNtCsdB7fS8jepxw_5alloc6string6StringB1M_EE00CshfQVmgc5i9r_11test_config
FN:372,_RNCNCINvMs0_NtCsj4J04da6EGf_3rlg6configNtBa_6Config3setNtNtBc_9log_level8LogLevelE00CshfQVmgc5i9r_11test_config
FN:372,_RNCNCINvMs0_NtCsj4J04da6EGf_3rlg6configNtBa_6Config3setNtNtCs9hLsKkECTMM_3std4path7PathBufE00CshfQVmgc5i9r_11test_config
FN:372,_RNCNCINvMs0_NtCsj4J04da6EGf_3rlg6configNtBa_6Config3setReE00CshfQVmgc5i9r_11test_config
FN:617,_RNCNCNvMs0_NtCsj4J04da6EGf_3rlg6configNtB9_6Config16hot_reload_async00CshfQVmgc5i9r_11test_config
FN:626,_RNCNCNvMs0_NtCsj4J04da6EGf_3rlg6configNtB9_6Config16hot_reload_async0s_0CshfQVmgc5i9r_11test_config
FN:613,_RNCNvMs0_NtCsj4J04da6EGf_3rlg6configNtB7_6Config16hot_reload_async0CshfQVmgc5i9r_11test_config
FN:598,_RNvMs0_NtCsj4J04da6EGf_3rlg6configNtB5_6Config15expand_env_vars
FN:610,_RNvMs0_NtCsj4J04da6EGf_3rlg6configNtB5_6Config16hot_reload_async
FN:566,_RNvMs0_NtCsj4J04da6EGf_3rlg6configNtB5_6Config24validate_network_address
FN:661,_RNvMs0_NtCsj4J04da6EGf_3rlg6configNtB5_6Config4diff
FN:739,_RNvMs0_NtCsj4J04da6EGf_3rlg6configNtB5_6Config5merge
FN:474,_RNvMs0_NtCsj4J04da6EGf_3rlg6configNtB5_6Config8validate
FN:253,_RNvNtCsj4J04da6EGf_3rlg6config15default_profile
FN:250,_RNvNtCsj4J04da6EGf_3rlg6config15default_version
FN:168,_RNvNtCsj4J04da6EGf_3rlg6config17parse_nonzero_u64
FN:259,_RNvNtCsj4J04da6EGf_3rlg6config18default_log_format
FN:256,_RNvNtCsj4J04da6EGf_3rlg6config21default_log_file_path
FN:262,_RNvNtCsj4J04da6EGf_3rlg6config28default_logging_destinations
FN:122,_RNvXNtCsj4J04da6EGf_3rlg6configNtB2_11LogRotationNtNtNtCs7dTDQl1DYhd_4core3str6traits7FromStr8from_str
FN:761,_RNvXs1_NtCsj4J04da6EGf_3rlg6configNtB5_6ConfigINtNtCs7dTDQl1DYhd_4core7convert7TryFromNtNtCs9hLsKkECTMM_3std3env4VarsE8try_from
FN:768,_RNvXs2_NtCsj4J04da6EGf_3rlg6configNtB5_11LogRotationNtNtCs7dTDQl1DYhd_4core3fmt7Display3fmt
FN:267,_RNvXs_NtCsj4J04da6EGf_3rlg6configNtB4_6ConfigNtNtCs7dTDQl1DYhd_4core7default7Default7default
FN:581,_RNCNvMs0_NtCsj4J04da6EGf_3rlg6configNtB7_6Config24validate_network_address0B9_
FN:588,_RNCNvMs0_NtCsj4J04da6EGf_3rlg6configNtB7_6Config24validate_network_addresss_0B9_
FN:752,_RNCNvMs0_NtCsj4J04da6EGf_3rlg6configNtB7_6Config5merge0B9_
FN:544,_RNCNvMs0_NtCsj4J04da6EGf_3rlg6configNtB7_6Config8validate0B9_
FN:555,_RNCNvMs0_NtCsj4J04da6EGf_3rlg6configNtB7_6Config8validates_0B9_
FN:173,_RNCNvNtCsj4J04da6EGf_3rlg6config17parse_nonzero_u640B5_
FN:187,_RNCNvNtCsj4J04da6EGf_3rlg6config17parse_nonzero_u64s0_0B5_
FN:180,_RNCNvNtCsj4J04da6EGf_3rlg6config17parse_nonzero_u64s_0B5_
FN:133,_RNCNvXNtCsj4J04da6EGf_3rlg6configNtB4_11LogRotationNtNtNtCs7dTDQl1DYhd_4core3str6traits7FromStr8from_str0B6_
FN:135,_RNCNvXNtCsj4J04da6EGf_3rlg6configNtB4_11LogRotationNtNtNtCs7dTDQl1DYhd_4core3str6traits7FromStr8from_strs_0B6_
FN:763,_RNCNvXs1_NtCsj4J04da6EGf_3rlg6configNtB7_6ConfigINtNtCs7dTDQl1DYhd_4core7convert7TryFromNtNtCs9hLsKkECTMM_3std3env4VarsE8try_from0B9_
FN:284,_RINvMs0_NtCsj4J04da6EGf_3rlg6configNtB6_6Config10load_asyncReECskCuGW7W54MU_8test_lib
FN:286,_RNCINvMs0_NtCsj4J04da6EGf_3rlg6configNtB8_6Config10load_asyncReE0CskCuGW7W54MU_8test_lib
FN:288,_RNCNCINvMs0_NtCsj4J04da6EGf_3rlg6configNtBa_6Config10load_asyncReE00CskCuGW7W54MU_8test_lib
FN:292,_RNCNCINvMs0_NtCsj4J04da6EGf_3rlg6configNtBa_6Config10load_asyncReE0s_0CskCuGW7W54MU_8test_lib
FN:284,_RINvMs0_NtCsj4J04da6EGf_3rlg6configNtB6_6Config10load_asyncReECs9LpHT29RFZr_22test_log_comprehensive
FN:286,_RNCINvMs0_NtCsj4J04da6EGf_3rlg6configNtB8_6Config10load_asyncReE0Cs9LpHT29RFZr_22test_log_comprehensive
FN:288,_RNCNCINvMs0_NtCsj4J04da6EGf_3rlg6configNtBa_6Config10load_asyncReE00Cs9LpHT29RFZr_22test_log_comprehensive
FN:292,_RNCNCINvMs0_NtCsj4J04da6EGf_3rlg6configNtBa_6Config10load_asyncReE0s_0Cs9LpHT29RFZr_22test_log_comprehensive
FNDA:0,_RINvMs0_NtCs3sxNJrCz760_3rlg6configNtB6_6Config10load_asyncpEB8_
FNDA:0,_RINvMs0_NtCs3sxNJrCz760_3rlg6configNtB6_6Config12save_to_filepEB8_
FNDA:0,_RINvMs0_NtCs3sxNJrCz760_3rlg6configNtB6_6Config3getpEB8_
FNDA:0,_RINvMs0_NtCs3sxNJrCz760_3rlg6configNtB6_6Config3setpEB8_
FNDA:0,_RNCINvMs0_NtCs3sxNJrCz760_3rlg6configNtB8_6Config10load_asyncpE0Ba_
FNDA:0,_RNCINvMs0_NtCs3sxNJrCz760_3rlg6configNtB8_6Config12save_to_filepE0Ba_
FNDA:0,_RNCINvMs0_NtCs3sxNJrCz760_3rlg6configNtB8_6Config12save_to_filepEs_0Ba_
FNDA:0,_RNCINvMs0_NtCs3sxNJrCz760_3rlg6configNtB8_6Config3setpE0Ba_
FNDA:0,_RNCINvMs0_NtCs3sxNJrCz760_3rlg6configNtB8_6Config3setpEs0_0Ba_
FNDA:0,_RNCINvMs0_NtCs3sxNJrCz760_3rlg6configNtB8_6Config3setpEs1_0Ba_
FNDA:0,_RNCINvMs0_NtCs3sxNJrCz760_3rlg6configNtB8_6Config3setpEs2_0Ba_
FNDA:0,_RNCINvMs0_NtCs3sxNJrCz760_3rlg6configNtB8_6Config3setpEs3_0Ba_
FNDA:0,_RNCINvMs0_NtCs3sxNJrCz760_3rlg6configNtB8_6Config3setpEs4_0Ba_
FNDA:0,_RNCINvMs0_NtCs3sxNJrCz760_3rlg6configNtB8_6Config3setpEs5_0Ba_
FNDA:0,_RNCINvMs0_NtCs3sxNJrCz760_3rlg6configNtB8_6Config3setpEs6_0Ba_
FNDA:0,_RNCINvMs0_NtCs3sxNJrCz760_3rlg6configNtB8_6Config3setpEs_0Ba_
FNDA:0,_RNCNCINvMs0_NtCs3sxNJrCz760_3rlg6configNtBa_6Config10load_asyncpE00Bc_
FNDA:0,_RNCNCINvMs0_NtCs3sxNJrCz760_3rlg6configNtBa_6Config10load_asyncpE0s_0Bc_
FNDA:0,_RNCNCINvMs0_NtCs3sxNJrCz760_3rlg6configNtBa_6Config3setpE00Bc_
FNDA:0,_RNCNCNvMs0_NtCs3sxNJrCz760_3rlg6configNtB9_6Config16hot_reload_async00Bb_
FNDA:0,_RNCNCNvMs0_NtCs3sxNJrCz760_3rlg6configNtB9_6Config16hot_reload_async0s_0Bb_
FNDA:0,_RNCNvMs0_NtCs3sxNJrCz760_3rlg6configNtB7_6Config16hot_reload_async0B9_
FNDA:0,_RNCNvMs0_NtCs3sxNJrCz760_3rlg6configNtB7_6Config24validate_network_address0B9_
FNDA:0,_RNCNvMs0_NtCs3sxNJrCz760_3rlg6configNtB7_6Config24validate_network_addresss_0B9_
FNDA:0,_RNCNvMs0_NtCs3sxNJrCz760_3rlg6configNtB7_6Config5merge0B9_
FNDA:0,_RNCNvMs0_NtCs3sxNJrCz760_3rlg6configNtB7_6Config8validate0B9_
FNDA:0,_RNCNvMs0_NtCs3sxNJrCz760_3rlg6configNtB7_6Config8validates_0B9_
FNDA:0,_RNCNvNtCs3sxNJrCz760_3rlg6config17parse_nonzero_u640B5_
FNDA:0,_RNCNvNtCs3sxNJrCz760_3rlg6config17parse_nonzero_u64s0_0B5_
FNDA:0,_RNCNvNtCs3sxNJrCz760_3rlg6config17parse_nonzero_u64s_0B5_
FNDA:0,_RNCNvXNtCs3sxNJrCz760_3rlg6configNtB4_11LogRotationNtNtNtCs7dTDQl1DYhd_4core3str6traits7FromStr8from_str0B6_
FNDA:0,_RNCNvXNtCs3sxNJrCz760_3rlg6configNtB4_11LogRotationNtNtNtCs7dTDQl1DYhd_4core3str6traits7FromStr8from_strs_0B6_
FNDA:0,_RNCNvXs1_NtCs3sxNJrCz760_3rlg6configNtB7_6ConfigINtNtCs7dTDQl1DYhd_4core7convert7TryFromNtNtCs9hLsKkECTMM_3std3env4VarsE8try_from0B9_
FNDA:0,_RNvMs0_NtCs3sxNJrCz760_3rlg6configNtB5_6Config15expand_env_vars
FNDA:0,_RNvMs0_NtCs3sxNJrCz760_3rlg6configNtB5_6Config16hot_reload_async
FNDA:0,_RNvMs0_NtCs3sxNJrCz760_3rlg6configNtB5_6Config24validate_network_address
FNDA:0,_RNvMs0_NtCs3sxNJrCz760_3rlg6configNtB5_6Config4diff
FNDA:0,_RNvMs0_NtCs3sxNJrCz760_3rlg6configNtB5_6Config5merge
FNDA:0,_RNvMs0_NtCs3sxNJrCz760_3rlg6configNtB5_6Config8validate
FNDA:0,_RNvNtCs3sxNJrCz760_3rlg6config15default_profile
FNDA:0,_RNvNtCs3sxNJrCz760_3rlg6config15default_version
FNDA:0,_RNvNtCs3sxNJrCz760_3rlg6config17parse_nonzero_u64
FNDA:0,_RNvNtCs3sxNJrCz760_3rlg6config18default_log_format
FNDA:0,_RNvNtCs3sxNJrCz760_3rlg6config21default_log_file_path
FNDA:0,_RNvNtCs3sxNJrCz760_3rlg6config28default_logging_destinations
FNDA:0,_RNvXNtCs3sxNJrCz760_3rlg6configNtB2_11LogRotationNtNtNtCs7dTDQl1DYhd_4core3str6traits7FromStr8from_str
FNDA:0,_RNvXs1_NtCs3sxNJrCz760_3rlg6configNtB5_6ConfigINtNtCs7dTDQl1DYhd_4core7convert7TryFromNtNtCs9hLsKkECTMM_3std3env4VarsE8try_from
FNDA:0,_RNvXs2_NtCs3sxNJrCz760_3rlg6configNtB5_11LogRotationNtNtCs7dTDQl1DYhd_4core3fmt7Display3fmt
FNDA:0,_RNvXs_NtCs3sxNJrCz760_3rlg6configNtB4_6ConfigNtNtCs7dTDQl1DYhd_4core7default7Default7default
FNDA:1,_RINvMs0_NtCsj4J04da6EGf_3rlg6configNtB6_6Config10load_asyncRNtNtCs9hLsKkECTMM_3std4path7PathBufECshfQVmgc5i9r_11test_config
FNDA:0,_RINvMs0_NtCsj4J04da6EGf_3rlg6configNtB6_6Config10load_asyncRNtNtCsdB7fS8jepxw_5alloc6string6StringECshfQVmgc5i9r_11test_config
FNDA:1,_RINvMs0_NtCsj4J04da6EGf_3rlg6configNtB6_6Config12save_to_fileRNtNtCs9hLsKkECTMM_3std4path7PathBufECshfQVmgc5i9r_11test_config
FNDA:1,_RINvMs0_NtCsj4J04da6EGf_3rlg6configNtB6_6Config3getINtNtCs7dTDQl1DYhd_4core6option6OptionNtB6_11LogRotationEECshfQVmgc5i9r_11test_config
FNDA:1,_RINvMs0_NtCsj4J04da6EGf_3rlg6configNtB6_6Config3getINtNtCsdB7fS8jepxw_5alloc3vec3VecNtB6_18LoggingDestinationEECshfQVmgc5i9r_11test_config
FNDA:1,_RINvMs0_NtCsj4J04da6EGf_3rlg6configNtB6_6Config3getINtNtNtNtCs9hLsKkECTMM_3std11collections4hash3map7HashMapNtNtCsdB7fS8jepxw_5alloc6string6StringB1I_EECshfQVmgc5i9r_11test_config
FNDA:1,_RINvMs0_NtCsj4J04da6EGf_3rlg6configNtB6_6Config3getNtNtB8_9log_level8LogLevelECshfQVmgc5i9r_11test_config
FNDA:1,_RINvMs0_NtCsj4J04da6EGf_3rlg6configNtB6_6Config3getNtNtCs9hLsKkECTMM_3std4path7PathBufECshfQVmgc5i9r_11test_config
FNDA:4,_RINvMs0_NtCsj4J04da6EGf_3rlg6configNtB6_6Config3getNtNtCsdB7fS8jepxw_5alloc6string6StringECshfQVmgc5i9r_11test_config
FNDA:1,_RINvMs0_NtCsj4J04da6EGf_3rlg6configNtB6_6Config3setINtNtCs7dTDQl1DYhd_4core6option6OptionNtB6_11LogRotationEECshfQVmgc5i9r_11test_config
FNDA:1,_RINvMs0_NtCsj4J04da6EGf_3rlg6configNtB6_6Config3setINtNtCsdB7fS8jepxw_5alloc3vec3VecNtB6_18LoggingDestinationEECshfQVmgc5i9r_11test_config
FNDA:1,_RINvMs0_NtCsj4J04da6EGf_3rlg6configNtB6_6Config3setINtNtNtNtCs9hLsKkECTMM_3std11collections4hash3map7HashMapNtNtCsdB7fS8jepxw_5alloc6string6StringB1I_EECshfQVmgc5i9r_11test_config
FNDA:1,_RINvMs0_NtCsj4J04da6EGf_3rlg6configNtB6_6Config3setNtNtB8_9log_level8LogLevelECshfQVmgc5i9r_11test_config
FNDA:1,_RINvMs0_NtCsj4J04da6EGf_3rlg6configNtB6_6Config3setNtNtCs9hLsKkECTMM_3std4path7PathBufECshfQVmgc5i9r_11test_config
FNDA:4,_RINvMs0_NtCsj4J04da6EGf_3rlg6configNtB6_6Config3setReECshfQVmgc5i9r_11test_config
FNDA:1,_RNCINvMs0_NtCsj4J04da6EGf_3rlg6configNtB8_6Config10load_asyncRNtNtCs9hLsKkECTMM_3std4path7PathBufE0CshfQVmgc5i9r_11test_config
FNDA:0,_RNCINvMs0_NtCsj4J04da6EGf_3rlg6configNtB8_6Config10load_asyncRNtNtCsdB7fS8jepxw_5alloc6string6StringE0CshfQVmgc5i9r_11test_config
FNDA:0,_RNCINvMs0_NtCsj4J04da6EGf_3rlg6configNtB8_6Config12save_to_fileRNtNtCs9hLsKkECTMM_3std4path7PathBufE0CshfQVmgc5i9r_11test_config
FNDA:0,_RNCINvMs0_NtCsj4J04da6EGf_3rlg6configNtB8_6Config12save_to_fileRNtNtCs9hLsKkECTMM_3std4path7PathBufEs_0CshfQVmgc5i9r_11test_config
FNDA:1,_RNCINvMs0_NtCsj4J04da6EGf_3rlg6configNtB8_6Config3setINtNtCs7dTDQl1DYhd_4core6option6OptionNtB8_11LogRotationEE0CshfQVmgc5i9r_11test_config
FNDA:0,_RNCINvMs0_NtCsj4J04da6EGf_3rlg6configNtB8_6Config3setINtNtCs7dTDQl1DYhd_4core6option6OptionNtB8_11LogRotationEEs0_0CshfQVmgc5i9r_11test_config
FNDA:0,_RNCINvMs0_NtCsj4J04da6EGf_3rlg6configNtB8_6Config3setINtNtCs7dTDQl1DYhd_4core6option6OptionNtB8_11LogRotationEEs1_0CshfQVmgc5i9r_11test_config
FNDA:0,_RNCINvMs0_NtCsj4J04da6EGf_3rlg6configNtB8_6Config3setINtNtCs7dTDQl1DYhd_4core6option6OptionNtB8_11LogRotationEEs2_0CshfQVmgc5i9r_11test_config
FNDA:0,_RNCINvMs0_NtCsj4J04da6EGf_3rlg6configNtB8_6Config3setINtNtCs7dTDQl1DYhd_4core6option6OptionNtB8_11LogRotationEEs3_0CshfQVmgc5i9r_11test_config
FNDA:0,_RNCINvMs0_NtCsj4J04da6EGf_3rlg6configNtB8_6Config3setINtNtCs7dTDQl1DYhd_4core6option6OptionNtB8_11LogRotationEEs4_0CshfQVmgc5i9r_11test_config
FNDA:0,_RNCINvMs0_NtCsj4J04da6EGf_3rlg6configNtB8_6Config3setINtNtCs7dTDQl1DYhd_4core6option6OptionNtB8_11LogRotationEEs5_0CshfQVmgc5i9r_11test_config
FNDA:0,_RNCINvMs0_NtCsj4J04da6EGf_3rlg6configNtB8_6Config3setINtNtCs7dTDQl1DYhd_4core6option6OptionNtB8_11LogRotationEEs6_0CshfQVmgc5i9r_11test_config
FNDA:0,_RNCINvMs0_NtCsj4J04da6EGf_3rlg6configNtB8_6Config3setINtNtCs7dTDQl1DYhd_4core6option6OptionNtB8_11LogRotationEEs_0CshfQVmgc5i9r_11test_config
FNDA:1,_RNCINvMs0_NtCsj4J04da6EGf_3rlg6configNtB8_6Config3setINtNtCsdB7fS8jepxw_5alloc3vec3VecNtB8_18LoggingDestinationEE0CshfQVmgc5i9r_11test_config
FNDA:0,_RNCINvMs0_NtCsj4J04da6EGf_3rlg6configNtB8_6Config3setINtNtCsdB7fS8jepxw_5alloc3vec3VecNtB8_18LoggingDestinationEEs0_0CshfQVmgc5i9r_11test_config
FNDA:0,_RNCINvMs0_NtCsj4J04da6EGf_3rlg6configNtB8_6Config3setINtNtCsdB7fS8jepxw_5alloc3vec3VecNtB8_18LoggingDestinationEEs1_0CshfQVmgc5i9r_11test_config
FNDA:0,_RNCINvMs0_NtCsj4J04da6EGf_3rlg6configNtB8_6Config3setINtNtCsdB7fS8jepxw_5alloc3vec3VecNtB8_18LoggingDestinationEEs2_0CshfQVmgc5i9r_11test_config
FNDA:0,_RNCINvMs0_NtCsj4J04da6EGf_3rlg6configNtB8_6Config3setINtNtCsdB7fS8jepxw_5alloc3vec3VecNtB8_18LoggingDestinationEEs3_0CshfQVmgc5i9r_11test_config
FNDA:0,_RNCINvMs0_NtCsj4J04da6EGf_3rlg6configNtB8_6Config3setINtNtCsdB7fS8jepxw_5alloc3vec3VecNtB8_18LoggingDestinationEEs4_0CshfQVmgc5i9r_11test_config
FNDA:0,_RNCINvMs0_NtCsj4J04da6EGf_3rlg6configNtB8_6Config3setINtNtCsdB7fS8jepxw_5alloc3vec3VecNtB8_18LoggingDestinationEEs5_0CshfQVmgc5i9r_11test_config
FNDA:0,_RNCINvMs0_NtCsj4J04da6EGf_3rlg6configNtB8_6Config3setINtNtCsdB7fS8jepxw_5alloc3vec3VecNtB8_18LoggingDestinationEEs6_0CshfQVmgc5i9r_11test_config
FNDA:0,_RNCINvMs0_NtCsj4J04da6EGf_3rlg6configNtB8_6Config3setINtNtCsdB7fS8jepxw_5alloc3vec3VecNtB8_18LoggingDestinationEEs_0CshfQVmgc5i9r_11test_config
FNDA:1,_RNCINvMs0_NtCsj4J04da6EGf_3rlg6configNtB8_6Config3setINtNtNtNtCs9hLsKkECTMM_3std11collections4hash3map7HashMapNtNtCsdB7fS8jepxw_5alloc6string6StringB1K_EE0CshfQVmgc5i9r_11test_config
FNDA:0,_RNCINvMs0_NtCsj4J04da6EGf_3rlg6configNtB8_6Config3setINtNtNtNtCs9hLsKkECTMM_3std11collections4hash3map7HashMapNtNtCsdB7fS8jepxw_5alloc6string6StringB1K_EEs0_0CshfQVmgc5i9r_11test_config
FNDA:0,_RNCINvMs0_NtCsj4J04da6EGf_3rlg6configNtB8_6Config3setINtNtNtNtCs9hLsKkECTMM_3std11collections4hash3map7HashMapNtNtCsdB7fS8jepxw_5alloc6string6StringB1K_EEs1_0CshfQVmgc5i9r_11test_config
FNDA:0,_RNCINvMs0_NtCsj4J04da6EGf_3rlg6configNtB8_6Config3setINtNtNtNtCs9hLsKkECTMM_3std11collections4hash3map7HashMapNtNtCsdB7fS8jepxw_5alloc6string6StringB1K_EEs2_0CshfQVmgc5i9r_11test_config
FNDA:0,_RNCINvMs0_NtCsj4J04da6EGf_3rlg6configNtB8_6Config3setINtNtNtNtCs9hLsKkECTMM_3std11collections4hash3map7HashMapNtNtCsdB7fS8jepxw_5alloc6string6StringB1K_EEs3_0CshfQVmgc5i9r_11test_config
FNDA:0,_RNCINvMs0_NtCsj4J04da6EGf_3rlg6configNtB8_6Config3setINtNtNtNtCs9hLsKkECTMM_3std11collections4hash3map7HashMapNtNtCsdB7fS8jepxw_5alloc6string6StringB1K_EEs4_0CshfQVmgc5i9r_11test_config
FNDA:0,_RNCINvMs0_NtCsj4J04da6EGf_3rlg6configNtB8_6Config3setINtNtNtNtCs9hLsKkECTMM_3std11collections4hash3map7HashMapNtNtCsdB7fS8jepxw_5alloc6string6StringB1K_EEs5_0CshfQVmgc5i9r_11test_config
FNDA:0,_RNCINvMs0_NtCsj4J04da6EGf_3rlg6configNtB8_6Config3setINtNtNtNtCs9hLsKkECTMM_3std11collections4hash3map7HashMapNtNtCsdB7fS8jepxw_5alloc6string6StringB1K_EEs6_0CshfQVmgc5i9r_11test_config
FNDA:0,_RNCINvMs0_NtCsj4J04da6EGf_3rlg6configNtB8_6Config3setINtNtNtNtCs9hLsKkECTMM_3std11collections4hash3map7HashMapNtNtCsdB7fS8jepxw_5alloc6string6StringB1K_EEs_0CshfQVmgc5i9r_11test_config
FNDA:1,_RNCINvMs0_NtCsj4J04da6EGf_3rlg6configNtB8_6Config3setNtNtBa_9log_level8LogLevelE0CshfQVmgc5i9r_11test_config
FNDA:0,_RNCINvMs0_NtCsj4J04da6EGf_3rlg6configNtB8_6Config3setNtNtBa_9log_level8LogLevelEs0_0CshfQVmgc5i9r_11test_config
FNDA:0,_RNCINvMs0_NtCsj4J04da6EGf_3rlg6configNtB8_6Config3setNtNtBa_9log_level8LogLevelEs1_0CshfQVmgc5i9r_11test_config
FNDA:0,_RNCINvMs0_NtCsj4J04da6EGf_3rlg6configNtB8_6Config3setNtNtBa_9log_level8LogLevelEs2_0CshfQVmgc5i9r_11test_config
FNDA:0,_RNCINvMs0_NtCsj4J04da6EGf_3rlg6configNtB8_6Config3setNtNtBa_9log_level8LogLevelEs3_0CshfQVmgc5i9r_11test_config
FNDA:0,_RNCINvMs0_NtCsj4J04da6EGf_3rlg6configNtB8_6Config3setNtNtBa_9log_level8LogLevelEs4_0CshfQVmgc5i9r_11test_config
FNDA:0,_RNCINvMs0_NtCsj4J04da6EGf_3rlg6configNtB8_6Config3setNtNtBa_9log_level8LogLevelEs5_0CshfQVmgc5i9r_11test_config
FNDA:0,_RNCINvMs0_NtCsj4J04da6EGf_3rlg6configNtB8_6Config3setNtNtBa_9log_level8LogLevelEs6_0CshfQVmgc5i9r_11test_config
FNDA:0,_RNCINvMs0_NtCsj4J04da6EGf_3rlg6configNtB8_6Config3setNtNtBa_9log_level8LogLevelEs_0CshfQVmgc5i9r_11test_config
FNDA:1,_RNCINvMs0_NtCsj4J04da6EGf_3rlg6configNtB8_6Config3setNtNtCs9hLsKkECTMM_3std4path7PathBufE0CshfQVmgc5i9r_11test_config
FNDA:0,_RNCINvMs0_NtCsj4J04da6EGf_3rlg6configNtB8_6Config3setNtNtCs9hLsKkECTMM_3std4path7PathBufEs0_0CshfQVmgc5i9r_11test_config
FNDA:0,_RNCINvMs0_NtCsj4J04da6EGf_3rlg6configNtB8_6Config3setNtNtCs9hLsKkECTMM_3std4path7PathBufEs1_0CshfQVmgc5i9r_11test_config
FNDA:0,_RNCINvMs0_NtCsj4J04da6EGf_3rlg6configNtB8_6Config3setNtNtCs9hLsKkECTMM_3std4path7PathBufEs2_0CshfQVmgc5i9r_11test_config
FNDA:0,_RNCINvMs0_NtCsj4J04da6EGf_3rlg6configNtB8_6Config3setNtNtCs9hLsKkECTMM_3std4path7PathBufEs3_0CshfQVmgc5i9r_11test_config
FNDA:0,_RNCINvMs0_NtCsj4J04da6EGf_3rlg6configNtB8_6Config3setNtNtCs9hLsKkECTMM_3std4path7PathBufEs4_0CshfQVmgc5i9r_11test_config
FNDA:0,_RNCINvMs0_NtCsj4J04da6EGf_3rlg6configNtB8_6Config3setNtNtCs9hLsKkECTMM_3std4path7PathBufEs5_0CshfQVmgc5i9r_11test_config
FNDA:0,_RNCINvMs0_NtCsj4J04da6EGf_3rlg6configNtB8_6Config3setNtNtCs9hLsKkECTMM_3std4path7PathBufEs6_0CshfQVmgc5i9r_11test_config
FNDA:0,_RNCINvMs0_NtCsj4J04da6EGf_3rlg6configNtB8_6Config3setNtNtCs9hLsKkECTMM_3std4path7PathBufEs_0CshfQVmgc5i9r_11test_config
FNDA:3,_RNCINvMs0_NtCsj4J04da6EGf_3rlg6configNtB8_6Config3setReE0CshfQVmgc5i9r_11test_config
FNDA:0,_RNCINvMs0_NtCsj4J04da6EGf_3rlg6configNtB8_6Config3setReEs0_0CshfQVmgc5i9r_11test_config
FNDA:0,_RNCINvMs0_NtCsj4J04da6EGf_3rlg6configNtB8_6Config3setReEs1_0CshfQVmgc5i9r_11test_config
FNDA:0,_RNCINvMs0_NtCsj4J04da6EGf_3rlg6configNtB8_6Config3setReEs2_0CshfQVmgc5i9r_11test_config
FNDA:0,_RNCINvMs0_NtCsj4J04da6EGf_3rlg6configNtB8_6Config3setReEs3_0CshfQVmgc5i9r_11test_config
FNDA:0,_RNCINvMs0_NtCsj4J04da6EGf_3rlg6configNtB8_6Config3setReEs4_0CshfQVmgc5i9r_11test_config
FNDA:0,_RNCINvMs0_NtCsj4J04da6EGf_3rlg6configNtB8_6Config3setReEs5_0CshfQVmgc5i9r_11test_config
FNDA:0,_RNCINvMs0_NtCsj4J04da6EGf_3rlg6configNtB8_6Config3setReEs6_0CshfQVmgc5i9r_11test_config
FNDA:0,_RNCINvMs0_NtCsj4J04da6EGf_3rlg6configNtB8_6Config3setReEs_0CshfQVmgc5i9r_11test_config
FNDA:0,_RNCNCINvMs0_NtCsj4J04da6EGf_3rlg6configNtBa_6Config10load_asyncRNtNtCs9hLsKkECTMM_3std4path7PathBufE00CshfQVmgc5i9r_11test_config
FNDA:0,_RNCNCINvMs0_NtCsj4J04da6EGf_3rlg6configNtBa_6Config10load_asyncRNtNtCs9hLsKkECTMM_3std4path7PathBufE0s_0CshfQVmgc5i9r_11test_config
FNDA:0,_RNCNCINvMs0_NtCsj4J04da6EGf_3rlg6configNtBa_6Config10load_asyncRNtNtCsdB7fS8jepxw_5alloc6string6StringE00CshfQVmgc5i9r_11test_config
FNDA:0,_RNCNCINvMs0_NtCsj4J04da6EGf_3rlg6configNtBa_6Config10load_asyncRNtNtCsdB7fS8jepxw_5alloc6string6StringE0s_0CshfQVmgc5i9r_11test_config
FNDA:0,_RNCNCINvMs0_NtCsj4J04da6EGf_3rlg6configNtBa_6Config3setINtNtCs7dTDQl1DYhd_4core6option6OptionNtBa_11LogRotationEE00CshfQVmgc5i9r_11test_config
FNDA:0,_RNCNCINvMs0_NtCsj4J04da6EGf_3rlg6configNtBa_6Config3setINtNtCsdB7fS8jepxw_5alloc3vec3VecNtBa_18LoggingDestinationEE00CshfQVmgc5i9r_11test_config
FNDA:0,_RNCNCINvMs0_NtCsj4J04da6EGf_3rlg6configNtBa_6Config3setINtNtNtNtCs9hLsKkECTMM_3std11collections4hash3map7HashMapNtNtCsdB7fS8jepxw_5alloc6string6StringB1M_EE00CshfQVmgc5i9r_11test_config
FNDA:0,_RNCNCINvMs0_NtCsj4J04da6EGf_3rlg6configNtBa_6Config3setNtNtBc_9log_level8LogLevelE00CshfQVmgc5i9r_11test_config
FNDA:0,_RNCNCINvMs0_NtCsj4J04da6EGf_3rlg6configNtBa_6Config3setNtNtCs9hLsKkECTMM_3std4path7PathBufE00CshfQVmgc5i9r_11test_config
FNDA:0,_RNCNCINvMs0_NtCsj4J04da6EGf_3rlg6configNtBa_6Config3setReE00CshfQVmgc5i9r_11test_config
FNDA:0,_RNCNCNvMs0_NtCsj4J04da6EGf_3rlg6configNtB9_6Config16hot_reload_async00CshfQVmgc5i9r_11test_config
FNDA:1,_RNCNCNvMs0_NtCsj4J04da6EGf_3rlg6configNtB9_6Config16hot_reload_async0s_0CshfQVmgc5i9r_11test_config
FNDA:1,_RNCNvMs0_NtCsj4J04da6EGf_3rlg6configNtB7_6Config16hot_reload_async0CshfQVmgc5i9r_11test_config
FNDA:1,_RNvMs0_NtCsj4J04da6EGf_3rlg6configNtB5_6Config15expand_env_vars
FNDA:1,_RNvMs0_NtCsj4J04da6EGf_3rlg6configNtB5_6Config16hot_reload_async
FNDA:0,_RNvMs0_NtCsj4J04da6EGf_3rlg6configNtB5_6Config24validate_network_address
FNDA:1,_RNvMs0_NtCsj4J04da6EGf_3rlg6configNtB5_6Config4diff
FNDA:1,_RNvMs0_NtCsj4J04da6EGf_3rlg6configNtB5_6Config5merge
FNDA:37,_RNvMs0_NtCsj4J04da6EGf_3rlg6configNtB5_6Config8validate
FNDA:44,_RNvNtCsj4J04da6EGf_3rlg6config15default_profile
FNDA:43,_RNvNtCsj4J04da6EGf_3rlg6config15default_version
FNDA:6,_RNvNtCsj4J04da6EGf_3rlg6config17parse_nonzero_u64
FNDA:43,_RNvNtCsj4J04da6EGf_3rlg6config18default_log_format
FNDA:43,_RNvNtCsj4J04da6EGf_3rlg6config21default_log_file_path
FNDA:44,_RNvNtCsj4J04da6EGf_3rlg6config28default_logging_destinations
FNDA:12,_RNvXNtCsj4J04da6EGf_3rlg6configNtB2_11LogRotationNtNtNtCs7dTDQl1DYhd_4core3str6traits7FromStr8from_str
FNDA:0,_RNvXs1_NtCsj4J04da6EGf_3rlg6configNtB5_6ConfigINtNtCs7dTDQl1DYhd_4core7convert7TryFromNtNtCs9hLsKkECTMM_3std3env4VarsE8try_from
FNDA:4,_RNvXs2_NtCsj4J04da6EGf_3rlg6configNtB5_11LogRotationNtNtCs7dTDQl1DYhd_4core3fmt7Display3fmt
FNDA:43,_RNvXs_NtCsj4J04da6EGf_3rlg6configNtB4_6ConfigNtNtCs7dTDQl1DYhd_4core7default7Default7default
FNDA:0,_RNCNvMs0_NtCsj4J04da6EGf_3rlg6configNtB7_6Config24validate_network_address0B9_
FNDA:0,_RNCNvMs0_NtCsj4J04da6EGf_3rlg6configNtB7_6Config24validate_network_addresss_0B9_
FNDA:0,_RNCNvMs0_NtCsj4J04da6EGf_3rlg6configNtB7_6Config5merge0B9_
FNDA:0,_RNCNvMs0_NtCsj4J04da6EGf_3rlg6configNtB7_6Config8validate0B9_
FNDA:0,_RNCNvMs0_NtCsj4J04da6EGf_3rlg6configNtB7_6Config8validates_0B9_
FNDA:0,_RNCNvNtCsj4J04da6EGf_3rlg6config17parse_nonzero_u640B5_
FNDA:1,_RNCNvNtCsj4J04da6EGf_3rlg6config17parse_nonzero_u64s0_0B5_
FNDA:2,_RNCNvNtCsj4J04da6EGf_3rlg6config17parse_nonzero_u64s_0B5_
FNDA:0,_RNCNvXNtCsj4J04da6EGf_3rlg6configNtB4_11LogRotationNtNtNtCs7dTDQl1DYhd_4core3str6traits7FromStr8from_str0B6_
FNDA:1,_RNCNvXNtCsj4J04da6EGf_3rlg6configNtB4_11LogRotationNtNtNtCs7dTDQl1DYhd_4core3str6traits7FromStr8from_strs_0B6_
FNDA:0,_RNCNvXs1_NtCsj4J04da6EGf_3rlg6configNtB7_6ConfigINtNtCs7dTDQl1DYhd_4core7convert7TryFromNtNtCs9hLsKkECTMM_3std3env4VarsE8try_from0B9_
FNDA:30,_RINvMs0_NtCsj4J04da6EGf_3rlg6configNtB6_6Config10load_asyncReECskCuGW7W54MU_8test_lib
FNDA:30,_RNCINvMs0_NtCsj4J04da6EGf_3rlg6configNtB8_6Config10load_asyncReE0CskCuGW7W54MU_8test_lib
FNDA:0,_RNCNCINvMs0_NtCsj4J04da6EGf_3rlg6configNtBa_6Config10load_asyncReE00CskCuGW7W54MU_8test_lib
FNDA:0,_RNCNCINvMs0_NtCsj4J04da6EGf_3rlg6configNtBa_6Config10load_asyncReE0s_0CskCuGW7W54MU_8test_lib
FNDA:4,_RINvMs0_NtCsj4J04da6EGf_3rlg6configNtB6_6Config10load_asyncReECs9LpHT29RFZr_22test_log_comprehensive
FNDA:4,_RNCINvMs0_NtCsj4J04da6EGf_3rlg6configNtB8_6Config10load_asyncReE0Cs9LpHT29RFZr_22test_log_comprehensive
FNDA:0,_RNCNCINvMs0_NtCsj4J04da6EGf_3rlg6configNtBa_6Config10load_asyncReE00Cs9LpHT29RFZr_22test_log_comprehensive
FNDA:0,_RNCNCINvMs0_NtCsj4J04da6EGf_3rlg6configNtBa_6Config10load_asyncReE0s_0Cs9LpHT29RFZr_22test_log_comprehensive
FNF:49
FNH:25
DA:122,12
DA:123,12
DA:124,12
DA:125,12
DA:126,4
DA:127,8
DA:128,2
DA:129,6
DA:130,5
DA:131,3
DA:132,3
DA:133,3
DA:134,3
DA:135,3
DA:136,2
DA:137,1
DA:138,1
DA:139,1
DA:140,1
DA:142,1
DA:145,2
DA:146,2
DA:147,2
DA:148,2
DA:150,12
DA:168,6
DA:169,6
DA:170,6
DA:171,6
DA:172,6
DA:173,6
DA:174,0
DA:175,0
DA:176,0
DA:177,0
DA:178,0
DA:179,6
DA:180,6
DA:181,2
DA:182,2
DA:183,2
DA:184,2
DA:185,2
DA:187,4
DA:188,1
DA:189,1
DA:190,1
DA:191,1
DA:192,1
DA:193,6
DA:250,43
DA:251,43
DA:252,43
DA:253,44
DA:254,44
DA:255,44
DA:256,43
DA:257,43
DA:258,43
DA:259,43
DA:260,43
DA:261,43
DA:262,44
DA:263,44
DA:264,44
DA:267,43
DA:268,43
DA:269,43
DA:270,43
DA:271,43
DA:272,43
DA:273,43
DA:274,43
DA:275,43
DA:276,43
DA:277,43
DA:278,43
DA:279,43
DA:284,35
DA:285,35
DA:286,35
DA:287,35
DA:288,1
DA:289,0
DA:290,0
DA:291,1
DA:292,1
DA:293,0
DA:294,0
DA:295,1
DA:296,1
DA:297,1
DA:298,1
DA:300,1
DA:301,1
DA:302,1
DA:303,0
DA:304,0
DA:305,0
DA:306,0
DA:307,1
DA:308,1
DA:310,34
DA:312,35
DA:313,35
DA:314,35
DA:317,9
DA:318,9
DA:319,9
DA:321,9
DA:322,9
DA:323,8
DA:324,7
DA:325,1
DA:327,6
DA:328,5
DA:329,1
DA:331,4
DA:332,1
DA:334,3
DA:335,1
DA:337,2
DA:338,1
DA:340,8
DA:341,9
DA:344,1
DA:345,1
DA:346,1
DA:347,1
DA:348,1
DA:349,1
DA:350,0
DA:351,0
DA:352,0
DA:353,0
DA:354,0
DA:355,1
DA:356,0
DA:357,0
DA:358,0
DA:359,0
DA:360,0
DA:361,1
DA:362,1
DA:365,9
DA:366,9
DA:367,9
DA:368,9
DA:369,9
DA:370,9
DA:371,8
DA:372,8
DA:373,0
DA:374,0
DA:375,8
DA:377,9
DA:378,9
DA:379,1
DA:380,1
DA:381,1
DA:382,0
DA:383,0
DA:384,0
DA:385,0
DA:386,1
DA:388,8
DA:389,1
DA:390,1
DA:391,1
DA:392,0
DA:393,0
DA:394,0
DA:395,0
DA:396,1
DA:398,7
DA:399,1
DA:400,1
DA:401,1
DA:402,0
DA:403,0
DA:404,0
DA:405,0
DA:406,0
DA:407,0
DA:409,6
DA:411,1
DA:412,1
DA:413,0
DA:414,0
DA:415,0
DA:416,0
DA:417,0
DA:418,0
DA:420,5
DA:422,1
DA:423,1
DA:424,0
DA:425,0
DA:426,0
DA:427,0
DA:428,0
DA:429,0
DA:431,4
DA:432,1
DA:433,1
DA:434,1
DA:435,0
DA:436,0
DA:437,0
DA:438,0
DA:439,1
DA:441,3
DA:442,1
DA:443,1
DA:444,1
DA:445,0
DA:446,0
DA:447,0
DA:448,0
DA:449,0
DA:450,0
DA:452,2
DA:453,1
DA:454,1
DA:455,1
DA:456,0
DA:457,0
DA:458,0
DA:459,0
DA:460,0
DA:461,0
DA:464,1
DA:465,1
DA:466,1
DA:467,1
DA:470,8
DA:471,9
DA:474,37
DA:475,37
DA:476,0
DA:477,0
DA:478,0
DA:479,37
DA:480,37
DA:481,0
DA:482,0
DA:483,0
DA:484,37
DA:485,37
DA:486,1
DA:487,1
DA:488,1
DA:489,36
DA:490,36
DA:491,35
DA:492,35
DA:493,0
DA:494,0
DA:495,0
DA:496,0
DA:498,0
DA:499,0
DA:500,0
DA:501,0
DA:502,0
DA:504,0
DA:505,0
DA:506,0
DA:507,0
DA:508,0
DA:510,35
DA:512,1
DA:513,36
DA:514,0
DA:515,0
DA:516,0
DA:517,36
DA:518,36
DA:519,0
DA:520,0
DA:521,0
DA:522,0
DA:523,36
DA:524,36
DA:525,36
DA:526,0
DA:527,36
DA:529,36
DA:530,0
DA:531,0
DA:532,0
DA:533,0
DA:534,0
DA:535,0
DA:536,0
DA:537,0
DA:538,0
DA:540,36
DA:541,36
DA:543,36
DA:544,36
DA:545,0
DA:546,0
DA:547,0
DA:548,0
DA:549,0
DA:550,0
DA:551,36
DA:552,36
DA:553,36
DA:554,36
DA:555,36
DA:556,0
DA:557,0
DA:558,0
DA:559,0
DA:560,0
DA:561,0
DA:562,36
DA:563,37
DA:566,0
DA:567,0
DA:568,0
DA:569,0
DA:570,0
DA:571,0
DA:572,0
DA:573,0
DA:574,0
DA:575,0
DA:576,0
DA:577,0
DA:578,0
DA:579,0
DA:580,0
DA:581,0
DA:582,0
DA:583,0
DA:584,0
DA:585,0
DA:586,0
DA:587,0
DA:588,0
DA:589,0
DA:590,0
DA:591,0
DA:592,0
DA:593,0
DA:594,0
DA:595,0
DA:598,1
DA:599,1
DA:600,1
DA:601,1
DA:602,1
DA:603,1
DA:605,1
DA:606,1
DA:610,1
DA:611,1
DA:612,1
DA:613,1
DA:614,1
DA:615,1
DA:617,1
DA:618,0
DA:619,0
DA:620,1
DA:621,1
DA:622,1
DA:623,0
DA:625,1
DA:626,1
DA:628,1
DA:629,1
DA:630,0
DA:631,0
DA:633,0
DA:634,0
DA:635,0
DA:636,0
DA:637,0
DA:638,0
DA:640,0
DA:643,0
DA:644,0
DA:645,0
DA:647,0
DA:650,1
DA:651,0
DA:652,0
DA:656,0
DA:657,1
DA:658,1
DA:661,1
DA:662,1
DA:663,1
DA:664,1
DA:665,1
DA:666,1
DA:667,0
DA:668,0
DA:669,0
DA:670,0
DA:671,1
DA:672,1
DA:673,1
DA:674,1
DA:675,1
DA:676,1
DA:677,1
DA:678,1
DA:679,0
DA:680,0
DA:681,0
DA:682,0
DA:683,0
DA:684,0
DA:685,0
DA:686,0
DA:687,1
DA:688,1
DA:689,0
DA:690,0
DA:691,0
DA:692,0
DA:693,0
DA:694,0
DA:695,0
DA:696,1
DA:697,1
DA:698,0
DA:699,0
DA:700,0
DA:701,0
DA:702,0
DA:703,0
DA:704,0
DA:705,1
DA:706,1
DA:707,0
DA:708,0
DA:709,0
DA:710,0
DA:711,0
DA:712,0
DA:713,0
DA:714,1
DA:715,1
DA:716,0
DA:717,0
DA:718,0
DA:719,0
DA:720,0
DA:721,0
DA:722,0
DA:723,0
DA:724,0
DA:725,1
DA:726,1
DA:727,0
DA:728,0
DA:729,0
DA:730,0
DA:731,0
DA:732,0
DA:733,0
DA:734,1
DA:735,1
DA:736,1
DA:739,1
DA:741,1
DA:742,1
DA:743,1
DA:744,1
DA:745,1
DA:746,1
DA:747,1
DA:748,1
DA:749,1
DA:750,1
DA:751,1
DA:752,1
DA:753,1
DA:755,1
DA:761,0
DA:762,0
DA:763,0
DA:764,0
DA:768,4
DA:769,4
DA:770,1
DA:771,1
DA:773,1
DA:774,1
DA:776,1
DA:777,1
DA:778,1
DA:781,4
BRF:0
BRH:0
LF:546
LH:271
end_of_record
SF:/home/seb/Code/Public/Rust/rlg/src/error.rs
FN:80,_RNvNtNtCs3sxNJrCz760_3rlg5error5testss_17test_custom_error
FN:70,_RNvNtNtCs3sxNJrCz760_3rlg5error5testss_18test_error_display
FN:86,_RNvNtNtCs3sxNJrCz760_3rlg5error5testss_28test_config_error_conversion
FN:57,_RINvMNtCs3sxNJrCz760_3rlg5errorNtB3_8RlgError6customReEB5_
FN:57,_RINvMNtCsj4J04da6EGf_3rlg5errorNtB3_8RlgError6customNtNtCsdB7fS8jepxw_5alloc6string6StringEB5_
FNDA:1,_RNvNtNtCs3sxNJrCz760_3rlg5error5testss_17test_custom_error
FNDA:1,_RNvNtNtCs3sxNJrCz760_3rlg5error5testss_18test_error_display
FNDA:1,_RNvNtNtCs3sxNJrCz760_3rlg5error5testss_28test_config_error_conversion
FNDA:1,_RINvMNtCs3sxNJrCz760_3rlg5errorNtB3_8RlgError6customReEB5_
FNDA:1,_RINvMNtCsj4J04da6EGf_3rlg5errorNtB3_8RlgError6customNtNtCsdB7fS8jepxw_5alloc6string6StringEB5_
FNF:4
FNH:4
DA:57,2
DA:58,2
DA:59,2
DA:70,1
DA:71,1
DA:72,1
DA:73,1
DA:74,1
DA:77,1
DA:80,1
DA:81,1
DA:82,1
DA:83,1
DA:86,1
DA:87,1
DA:88,1
DA:89,1
DA:90,1
DA:91,1
BRF:0
BRH:0
LF:19
LH:19
end_of_record
SF:/home/seb/Code/Public/Rust/rlg/src/log.rs
FN:170,_RNCNCNvMs_NtCs3sxNJrCz760_3rlg3logNtB8_3Log15write_log_entry00Ba_
FN:206,_RNCNCNvMs_NtCs3sxNJrCz760_3rlg3logNtB8_3Log15write_log_entry0s0_0Ba_
FN:198,_RNCNCNvMs_NtCs3sxNJrCz760_3rlg3logNtB8_3Log15write_log_entry0s_0Ba_
FN:87,_RNCNCNvMs_NtCs3sxNJrCz760_3rlg3logNtB8_3Log3log00Ba_
FN:108,_RNCNCNvMs_NtCs3sxNJrCz760_3rlg3logNtB8_3Log3log0s0_0Ba_
FN:115,_RNCNCNvMs_NtCs3sxNJrCz760_3rlg3logNtB8_3Log3log0s1_0Ba_
FN:122,_RNCNCNvMs_NtCs3sxNJrCz760_3rlg3logNtB8_3Log3log0s2_0Ba_
FN:93,_RNCNCNvMs_NtCs3sxNJrCz760_3rlg3logNtB8_3Log3log0s_0Ba_
FN:157,_RNCNvMs_NtCs3sxNJrCz760_3rlg3logNtB6_3Log15write_log_entry0B8_
FN:66,_RNCNvMs_NtCs3sxNJrCz760_3rlg3logNtB6_3Log3log0B8_
FN:152,_RNvMs_NtCs3sxNJrCz760_3rlg3logNtB4_3Log15write_log_entry
FN:66,_RNvMs_NtCs3sxNJrCz760_3rlg3logNtB4_3Log3log
FN:133,_RNvMs_NtCs3sxNJrCz760_3rlg3logNtB4_3Log3new
FN:45,_RNvXNtCs3sxNJrCz760_3rlg3logNtB2_3LogNtNtCs7dTDQl1DYhd_4core7default7Default7default
FN:218,_RNvXs0_NtCs3sxNJrCz760_3rlg3logNtB5_3LogNtNtCs7dTDQl1DYhd_4core3fmt7Display3fmt
FN:87,_RNCNCNvMs_NtCsj4J04da6EGf_3rlg3logNtB8_3Log3log00CskCuGW7W54MU_8test_lib
FN:108,_RNCNCNvMs_NtCsj4J04da6EGf_3rlg3logNtB8_3Log3log0s0_0CskCuGW7W54MU_8test_lib
FN:115,_RNCNCNvMs_NtCsj4J04da6EGf_3rlg3logNtB8_3Log3log0s1_0CskCuGW7W54MU_8test_lib
FN:122,_RNCNCNvMs_NtCsj4J04da6EGf_3rlg3logNtB8_3Log3log0s2_0CskCuGW7W54MU_8test_lib
FN:93,_RNCNCNvMs_NtCsj4J04da6EGf_3rlg3logNtB8_3Log3log0s_0CskCuGW7W54MU_8test_lib
FN:66,_RNCNvMs_NtCsj4J04da6EGf_3rlg3logNtB6_3Log3log0CskCuGW7W54MU_8test_lib
FN:152,_RNvMs_NtCsj4J04da6EGf_3rlg3logNtB4_3Log15write_log_entry
FN:66,_RNvMs_NtCsj4J04da6EGf_3rlg3logNtB4_3Log3log
FN:133,_RNvMs_NtCsj4J04da6EGf_3rlg3logNtB4_3Log3new
FN:45,_RNvXNtCsj4J04da6EGf_3rlg3logNtB2_3LogNtNtCs7dTDQl1DYhd_4core7default7Default7default
FN:218,_RNvXs0_NtCsj4J04da6EGf_3rlg3logNtB5_3LogNtNtCs7dTDQl1DYhd_4core3fmt7Display3fmt
FN:170,_RNCNCNvMs_NtCsj4J04da6EGf_3rlg3logNtB8_3Log15write_log_entry00Cs9LpHT29RFZr_22test_log_comprehensive
FN:206,_RNCNCNvMs_NtCsj4J04da6EGf_3rlg3logNtB8_3Log15write_log_entry0s0_0Cs9LpHT29RFZr_22test_log_comprehensive
FN:198,_RNCNCNvMs_NtCsj4J04da6EGf_3rlg3logNtB8_3Log15write_log_entry0s_0Cs9LpHT29RFZr_22test_log_comprehensive
FN:87,_RNCNCNvMs_NtCsj4J04da6EGf_3rlg3logNtB8_3Log3log00Cs9LpHT29RFZr_22test_log_comprehensive
FN:108,_RNCNCNvMs_NtCsj4J04da6EGf_3rlg3logNtB8_3Log3log0s0_0Cs9LpHT29RFZr_22test_log_comprehensive
FN:115,_RNCNCNvMs_NtCsj4J04da6EGf_3rlg3logNtB8_3Log3log0s1_0Cs9LpHT29RFZr_22test_log_comprehensive
FN:122,_RNCNCNvMs_NtCsj4J04da6EGf_3rlg3logNtB8_3Log3log0s2_0Cs9LpHT29RFZr_22test_log_comprehensive
FN:93,_RNCNCNvMs_NtCsj4J04da6EGf_3rlg3logNtB8_3Log3log0s_0Cs9LpHT29RFZr_22test_log_comprehensive
FN:157,_RNCNvMs_NtCsj4J04da6EGf_3rlg3logNtB6_3Log15write_log_entry0Cs9LpHT29RFZr_22test_log_comprehensive
FN:66,_RNCNvMs_NtCsj4J04da6EGf_3rlg3logNtB6_3Log3log0Cs9LpHT29RFZr_22test_log_comprehensive
FNDA:0,_RNCNCNvMs_NtCs3sxNJrCz760_3rlg3logNtB8_3Log15write_log_entry00Ba_
FNDA:0,_RNCNCNvMs_NtCs3sxNJrCz760_3rlg3logNtB8_3Log15write_log_entry0s0_0Ba_
FNDA:0,_RNCNCNvMs_NtCs3sxNJrCz760_3rlg3logNtB8_3Log15write_log_entry0s_0Ba_
FNDA:0,_RNCNCNvMs_NtCs3sxNJrCz760_3rlg3logNtB8_3Log3log00Ba_
FNDA:0,_RNCNCNvMs_NtCs3sxNJrCz760_3rlg3logNtB8_3Log3log0s0_0Ba_
FNDA:0,_RNCNCNvMs_NtCs3sxNJrCz760_3rlg3logNtB8_3Log3log0s1_0Ba_
FNDA:0,_RNCNCNvMs_NtCs3sxNJrCz760_3rlg3logNtB8_3Log3log0s2_0Ba_
FNDA:0,_RNCNCNvMs_NtCs3sxNJrCz760_3rlg3logNtB8_3Log3log0s_0Ba_
FNDA:0,_RNCNvMs_NtCs3sxNJrCz760_3rlg3logNtB6_3Log15write_log_entry0B8_
FNDA:0,_RNCNvMs_NtCs3sxNJrCz760_3rlg3logNtB6_3Log3log0B8_
FNDA:0,_RNvMs_NtCs3sxNJrCz760_3rlg3logNtB4_3Log15write_log_entry
FNDA:0,_RNvMs_NtCs3sxNJrCz760_3rlg3logNtB4_3Log3log
FNDA:0,_RNvMs_NtCs3sxNJrCz760_3rlg3logNtB4_3Log3new
FNDA:0,_RNvXNtCs3sxNJrCz760_3rlg3logNtB2_3LogNtNtCs7dTDQl1DYhd_4core7default7Default7default
FNDA:0,_RNvXs0_NtCs3sxNJrCz760_3rlg3logNtB5_3LogNtNtCs7dTDQl1DYhd_4core3fmt7Display3fmt
FNDA:0,_RNCNCNvMs_NtCsj4J04da6EGf_3rlg3logNtB8_3Log3log00CskCuGW7W54MU_8test_lib
FNDA:0,_RNCNCNvMs_NtCsj4J04da6EGf_3rlg3logNtB8_3Log3log0s0_0CskCuGW7W54MU_8test_lib
FNDA:0,_RNCNCNvMs_NtCsj4J04da6EGf_3rlg3logNtB8_3Log3log0s1_0CskCuGW7W54MU_8test_lib
FNDA:0,_RNCNCNvMs_NtCsj4J04da6EGf_3rlg3logNtB8_3Log3log0s2_0CskCuGW7W54MU_8test_lib
FNDA:0,_RNCNCNvMs_NtCsj4J04da6EGf_3rlg3logNtB8_3Log3log0s_0CskCuGW7W54MU_8test_lib
FNDA:30,_RNCNvMs_NtCsj4J04da6EGf_3rlg3logNtB6_3Log3log0CskCuGW7W54MU_8test_lib
FNDA:1,_RNvMs_NtCsj4J04da6EGf_3rlg3logNtB4_3Log15write_log_entry
FNDA:33,_RNvMs_NtCsj4J04da6EGf_3rlg3logNtB4_3Log3log
FNDA:119,_RNvMs_NtCsj4J04da6EGf_3rlg3logNtB4_3Log3new
FNDA:2,_RNvXNtCsj4J04da6EGf_3rlg3logNtB2_3LogNtNtCs7dTDQl1DYhd_4core7default7Default7default
FNDA:30,_RNvXs0_NtCsj4J04da6EGf_3rlg3logNtB5_3LogNtNtCs7dTDQl1DYhd_4core3fmt7Display3fmt
FNDA:0,_RNCNCNvMs_NtCsj4J04da6EGf_3rlg3logNtB8_3Log15write_log_entry00Cs9LpHT29RFZr_22test_log_comprehensive
FNDA:0,_RNCNCNvMs_NtCsj4J04da6EGf_3rlg3logNtB8_3Log15write_log_entry0s0_0Cs9LpHT29RFZr_22test_log_comprehensive
FNDA:0,_RNCNCNvMs_NtCsj4J04da6EGf_3rlg3logNtB8_3Log15write_log_entry0s_0Cs9LpHT29RFZr_22test_log_comprehensive
FNDA:0,_RNCNCNvMs_NtCsj4J04da6EGf_3rlg3logNtB8_3Log3log00Cs9LpHT29RFZr_22test_log_comprehensive
FNDA:0,_RNCNCNvMs_NtCsj4J04da6EGf_3rlg3logNtB8_3Log3log0s0_0Cs9LpHT29RFZr_22test_log_comprehensive
FNDA:0,_RNCNCNvMs_NtCsj4J04da6EGf_3rlg3logNtB8_3Log3log0s1_0Cs9LpHT29RFZr_22test_log_comprehensive
FNDA:0,_RNCNCNvMs_NtCsj4J04da6EGf_3rlg3logNtB8_3Log3log0s2_0Cs9LpHT29RFZr_22test_log_comprehensive
FNDA:0,_RNCNCNvMs_NtCsj4J04da6EGf_3rlg3logNtB8_3Log3log0s_0Cs9LpHT29RFZr_22test_log_comprehensive
FNDA:1,_RNCNvMs_NtCsj4J04da6EGf_3rlg3logNtB6_3Log15write_log_entry0Cs9LpHT29RFZr_22test_log_comprehensive
FNDA:3,_RNCNvMs_NtCsj4J04da6EGf_3rlg3logNtB6_3Log3log0Cs9LpHT29RFZr_22test_log_comprehensive
FNF:15
FNH:7
DA:45,2
DA:46,2
DA:47,2
DA:48,2
DA:49,2
DA:50,2
DA:51,2
DA:52,2
DA:53,2
DA:54,2
DA:66,33
DA:67,33
DA:70,33
DA:71,31
DA:72,31
DA:76,1
DA:77,1
DA:81,1
DA:82,1
DA:86,0
DA:87,33
DA:88,0
DA:89,0
DA:93,33
DA:94,0
DA:95,0
DA:97,33
DA:98,33
DA:99,33
DA:103,33
DA:104,33
DA:105,33
DA:106,33
DA:107,33
DA:108,33
DA:109,0
DA:110,0
DA:111,0
DA:112,0
DA:113,0
DA:115,33
DA:116,0
DA:117,0
DA:118,0
DA:119,0
DA:120,0
DA:122,33
DA:123,0
DA:124,0
DA:125,0
DA:126,0
DA:127,0
DA:129,33
DA:130,33
DA:133,119
DA:134,119
DA:135,119
DA:136,119
DA:137,119
DA:138,119
DA:139,119
DA:140,119
DA:141,119
DA:142,119
DA:143,119
DA:144,119
DA:145,119
DA:146,119
DA:147,119
DA:148,119
DA:149,119
DA:152,1
DA:153,1
DA:154,1
DA:155,1
DA:156,1
DA:157,1
DA:158,1
DA:159,1
DA:160,1
DA:161,1
DA:165,1
DA:166,1
DA:167,1
DA:168,1
DA:169,1
DA:170,1
DA:171,0
DA:172,0
DA:173,0
DA:174,0
DA:175,0
DA:176,0
DA:177,0
DA:178,0
DA:179,0
DA:182,1
DA:183,1
DA:184,1
DA:185,1
DA:186,1
DA:187,1
DA:188,1
DA:192,1
DA:195,1
DA:196,1
DA:197,1
DA:198,1
DA:199,0
DA:200,0
DA:201,0
DA:202,0
DA:203,0
DA:206,1
DA:207,0
DA:208,0
DA:209,0
DA:210,0
DA:211,0
DA:213,1
DA:214,1
DA:218,30
DA:219,30
DA:220,9
DA:221,9
DA:225,5
DA:226,5
DA:230,2
DA:231,2
DA:235,2
DA:236,2
DA:240,2
DA:241,2
DA:245,2
DA:246,2
DA:258,2
DA:259,2
DA:261,2
DA:267,2
DA:268,2
DA:277,2
DA:278,2
DA:282,2
DA:283,2
DA:293,30
BRF:0
BRH:0
LF:163
LH:108
end_of_record
SF:/home/seb/Code/Public/Rust/rlg/src/log_format.rs
FN:206,_RNvXs0_NtCs3sxNJrCz760_3rlg10log_formatNtB5_9LogFormatNtNtCs7dTDQl1DYhd_4core3fmt7Display3fmt
FN:228,_RNvNtNtCs3sxNJrCz760_3rlg10log_format5testss_24test_log_format_from_str
FN:238,_RNvNtNtCs3sxNJrCz760_3rlg10log_format5testss_24test_log_format_validate
FN:247,_RNvNtNtCs3sxNJrCz760_3rlg10log_format5testss_26test_log_format_format_log
FN:188,_RNCNvMs_NtCs3sxNJrCz760_3rlg10log_formatNtB6_9LogFormat10format_log0B8_
FN:195,_RNCNvMs_NtCs3sxNJrCz760_3rlg10log_formatNtB6_9LogFormat10format_logs_0B8_
FN:21,_RNCNvNtCs3sxNJrCz760_3rlg10log_format9CEF_REGEX0B5_
FN:15,_RNCNvNtCs3sxNJrCz760_3rlg10log_format9CLF_REGEX0B5_
FN:28,_RNCNvNtCs3sxNJrCz760_3rlg10log_format9W3C_REGEX0B5_
FN:172,_RNvMs_NtCs3sxNJrCz760_3rlg10log_formatNtB4_9LogFormat10format_log
FN:133,_RNvMs_NtCs3sxNJrCz760_3rlg10log_formatNtB4_9LogFormat8validate
FN:95,_RNvXNtCs3sxNJrCz760_3rlg10log_formatNtB2_9LogFormatNtNtNtCs7dTDQl1DYhd_4core3str6traits7FromStr8from_str
FN:188,_RNCNvMs_NtCsj4J04da6EGf_3rlg10log_formatNtB6_9LogFormat10format_log0B8_
FN:195,_RNCNvMs_NtCsj4J04da6EGf_3rlg10log_formatNtB6_9LogFormat10format_logs_0B8_
FN:21,_RNCNvNtCsj4J04da6EGf_3rlg10log_format9CEF_REGEX0B5_
FN:15,_RNCNvNtCsj4J04da6EGf_3rlg10log_format9CLF_REGEX0B5_
FN:28,_RNCNvNtCsj4J04da6EGf_3rlg10log_format9W3C_REGEX0B5_
FN:172,_RNvMs_NtCsj4J04da6EGf_3rlg10log_formatNtB4_9LogFormat10format_log
FN:133,_RNvMs_NtCsj4J04da6EGf_3rlg10log_formatNtB4_9LogFormat8validate
FN:95,_RNvXNtCsj4J04da6EGf_3rlg10log_formatNtB2_9LogFormatNtNtNtCs7dTDQl1DYhd_4core3str6traits7FromStr8from_str
FN:206,_RNvXs0_NtCsj4J04da6EGf_3rlg10log_formatNtB5_9LogFormatNtNtCs7dTDQl1DYhd_4core3fmt7Display3fmt
FNDA:0,_RNvXs0_NtCs3sxNJrCz760_3rlg10log_formatNtB5_9LogFormatNtNtCs7dTDQl1DYhd_4core3fmt7Display3fmt
FNDA:1,_RNvNtNtCs3sxNJrCz760_3rlg10log_format5testss_24test_log_format_from_str
FNDA:1,_RNvNtNtCs3sxNJrCz760_3rlg10log_format5testss_24test_log_format_validate
FNDA:1,_RNvNtNtCs3sxNJrCz760_3rlg10log_format5testss_26test_log_format_format_log
FNDA:0,_RNCNvMs_NtCs3sxNJrCz760_3rlg10log_formatNtB6_9LogFormat10format_log0B8_
FNDA:0,_RNCNvMs_NtCs3sxNJrCz760_3rlg10log_formatNtB6_9LogFormat10format_logs_0B8_
FNDA:0,_RNCNvNtCs3sxNJrCz760_3rlg10log_format9CEF_REGEX0B5_
FNDA:1,_RNCNvNtCs3sxNJrCz760_3rlg10log_format9CLF_REGEX0B5_
FNDA:0,_RNCNvNtCs3sxNJrCz760_3rlg10log_format9W3C_REGEX0B5_
FNDA:2,_RNvMs_NtCs3sxNJrCz760_3rlg10log_formatNtB4_9LogFormat10format_log
FNDA:2,_RNvMs_NtCs3sxNJrCz760_3rlg10log_formatNtB4_9LogFormat8validate
FNDA:3,_RNvXNtCs3sxNJrCz760_3rlg10log_formatNtB2_9LogFormatNtNtNtCs7dTDQl1DYhd_4core3str6traits7FromStr8from_str
FNDA:1,_RNCNvMs_NtCsj4J04da6EGf_3rlg10log_formatNtB6_9LogFormat10format_log0B8_
FNDA:0,_RNCNvMs_NtCsj4J04da6EGf_3rlg10log_formatNtB6_9LogFormat10format_logs_0B8_
FNDA:1,_RNCNvNtCsj4J04da6EGf_3rlg10log_format9CEF_REGEX0B5_
FNDA:1,_RNCNvNtCsj4J04da6EGf_3rlg10log_format9CLF_REGEX0B5_
FNDA:1,_RNCNvNtCsj4J04da6EGf_3rlg10log_format9W3C_REGEX0B5_
FNDA:5,_RNvMs_NtCsj4J04da6EGf_3rlg10log_formatNtB4_9LogFormat10format_log
FNDA:21,_RNvMs_NtCsj4J04da6EGf_3rlg10log_formatNtB4_9LogFormat8validate
FNDA:15,_RNvXNtCsj4J04da6EGf_3rlg10log_formatNtB2_9LogFormatNtNtNtCs7dTDQl1DYhd_4core3str6traits7FromStr8from_str
FNDA:16,_RNvXs0_NtCsj4J04da6EGf_3rlg10log_formatNtB5_9LogFormatNtNtCs7dTDQl1DYhd_4core3fmt7Display3fmt
FNF:12
FNH:11
DA:15,2
DA:16,2
DA:17,2
DA:18,2
DA:19,2
DA:21,1
DA:22,1
DA:23,1
DA:25,1
DA:26,1
DA:28,1
DA:29,1
DA:30,1
DA:31,1
DA:33,1
DA:34,1
DA:95,18
DA:96,18
DA:97,18
DA:98,15
DA:99,12
DA:100,10
DA:101,9
DA:102,8
DA:103,7
DA:104,6
DA:105,5
DA:106,4
DA:107,3
DA:108,3
DA:109,3
DA:110,3
DA:112,18
DA:133,23
DA:134,23
DA:136,6
DA:141,9
DA:143,2
DA:145,2
DA:148,2
DA:151,2
DA:154,23
DA:172,7
DA:173,7
DA:174,7
DA:180,4
DA:184,2
DA:185,3
DA:186,3
DA:188,3
DA:189,1
DA:190,1
DA:191,1
DA:192,1
DA:193,1
DA:195,2
DA:196,0
DA:197,0
DA:198,0
DA:199,0
DA:200,0
DA:202,7
DA:206,16
DA:207,16
DA:208,2
DA:209,2
DA:210,2
DA:211,2
DA:212,2
DA:213,2
DA:214,1
DA:215,1
DA:216,1
DA:217,1
DA:219,16
DA:220,16
DA:228,1
DA:229,1
DA:230,1
DA:231,1
DA:234,1
DA:235,1
DA:238,1
DA:239,1
DA:240,1
DA:242,1
DA:243,1
DA:244,1
DA:247,1
DA:248,1
DA:249,1
DA:250,1
DA:252,1
DA:253,1
DA:254,1
DA:255,1
BRF:0
BRH:0
LF:99
LH:93
end_of_record
SF:/home/seb/Code/Public/Rust/rlg/src/log_level.rs
FN:27,_RNvMNtCs3sxNJrCz760_3rlg9log_levelNtB2_18ParseLogLevelError3new
FN:112,_RNvMs1_NtCs3sxNJrCz760_3rlg9log_levelNtB5_8LogLevel10to_numeric
FN:141,_RNvMs1_NtCs3sxNJrCz760_3rlg9log_levelNtB5_8LogLevel12from_numeric
FN:95,_RNvMs1_NtCs3sxNJrCz760_3rlg9log_levelNtB5_8LogLevel8includes
FN:162,_RNvXs2_NtCs3sxNJrCz760_3rlg9log_levelNtB5_8LogLevelNtNtNtCs7dTDQl1DYhd_4core3str6traits7FromStr8from_str
FN:183,_RNvXs3_NtCs3sxNJrCz760_3rlg9log_levelNtB5_8LogLevelINtNtCs7dTDQl1DYhd_4core7convert7TryFromNtNtCsdB7fS8jepxw_5alloc6string6StringE8try_from
FN:189,_RNvXs4_NtCs3sxNJrCz760_3rlg9log_levelNtB5_8LogLevelNtNtCs7dTDQl1DYhd_4core3fmt7Display3fmt
FN:208,_RNvXs5_NtCs3sxNJrCz760_3rlg9log_levelNtB5_8LogLevelNtNtCs7dTDQl1DYhd_4core7default7Default7default
FN:35,_RNvXs_NtCs3sxNJrCz760_3rlg9log_levelNtB4_18ParseLogLevelErrorNtNtCs7dTDQl1DYhd_4core3fmt7Display3fmt
FN:27,_RNvMNtCsj4J04da6EGf_3rlg9log_levelNtB2_18ParseLogLevelError3new
FN:112,_RNvMs1_NtCsj4J04da6EGf_3rlg9log_levelNtB5_8LogLevel10to_numeric
FN:141,_RNvMs1_NtCsj4J04da6EGf_3rlg9log_levelNtB5_8LogLevel12from_numeric
FN:95,_RNvMs1_NtCsj4J04da6EGf_3rlg9log_levelNtB5_8LogLevel8includes
FN:162,_RNvXs2_NtCsj4J04da6EGf_3rlg9log_levelNtB5_8LogLevelNtNtNtCs7dTDQl1DYhd_4core3str6traits7FromStr8from_str
FN:183,_RNvXs3_NtCsj4J04da6EGf_3rlg9log_levelNtB5_8LogLevelINtNtCs7dTDQl1DYhd_4core7convert7TryFromNtNtCsdB7fS8jepxw_5alloc6string6StringE8try_from
FN:189,_RNvXs4_NtCsj4J04da6EGf_3rlg9log_levelNtB5_8LogLevelNtNtCs7dTDQl1DYhd_4core3fmt7Display3fmt
FN:208,_RNvXs5_NtCsj4J04da6EGf_3rlg9log_levelNtB5_8LogLevelNtNtCs7dTDQl1DYhd_4core7default7Default7default
FN:35,_RNvXs_NtCsj4J04da6EGf_3rlg9log_levelNtB4_18ParseLogLevelErrorNtNtCs7dTDQl1DYhd_4core3fmt7Display3fmt
FNDA:0,_RNvMNtCs3sxNJrCz760_3rlg9log_levelNtB2_18ParseLogLevelError3new
FNDA:0,_RNvMs1_NtCs3sxNJrCz760_3rlg9log_levelNtB5_8LogLevel10to_numeric
FNDA:0,_RNvMs1_NtCs3sxNJrCz760_3rlg9log_levelNtB5_8LogLevel12from_numeric
FNDA:0,_RNvMs1_NtCs3sxNJrCz760_3rlg9log_levelNtB5_8LogLevel8includes
FNDA:0,_RNvXs2_NtCs3sxNJrCz760_3rlg9log_levelNtB5_8LogLevelNtNtNtCs7dTDQl1DYhd_4core3str6traits7FromStr8from_str
FNDA:0,_RNvXs3_NtCs3sxNJrCz760_3rlg9log_levelNtB5_8LogLevelINtNtCs7dTDQl1DYhd_4core7convert7TryFromNtNtCsdB7fS8jepxw_5alloc6string6StringE8try_from
FNDA:0,_RNvXs4_NtCs3sxNJrCz760_3rlg9log_levelNtB5_8LogLevelNtNtCs7dTDQl1DYhd_4core3fmt7Display3fmt
FNDA:0,_RNvXs5_NtCs3sxNJrCz760_3rlg9log_levelNtB5_8LogLevelNtNtCs7dTDQl1DYhd_4core7default7Default7default
FNDA:0,_RNvXs_NtCs3sxNJrCz760_3rlg9log_levelNtB4_18ParseLogLevelErrorNtNtCs7dTDQl1DYhd_4core3fmt7Display3fmt
FNDA:12,_RNvMNtCsj4J04da6EGf_3rlg9log_levelNtB2_18ParseLogLevelError3new
FNDA:153,_RNvMs1_NtCsj4J04da6EGf_3rlg9log_levelNtB5_8LogLevel10to_numeric
FNDA:17,_RNvMs1_NtCsj4J04da6EGf_3rlg9log_levelNtB5_8LogLevel12from_numeric
FNDA:57,_RNvMs1_NtCsj4J04da6EGf_3rlg9log_levelNtB5_8LogLevel8includes
FNDA:61,_RNvXs2_NtCsj4J04da6EGf_3rlg9log_levelNtB5_8LogLevelNtNtNtCs7dTDQl1DYhd_4core3str6traits7FromStr8from_str
FNDA:24,_RNvXs3_NtCsj4J04da6EGf_3rlg9log_levelNtB5_8LogLevelINtNtCs7dTDQl1DYhd_4core7convert7TryFromNtNtCsdB7fS8jepxw_5alloc6string6StringE8try_from
FNDA:84,_RNvXs4_NtCsj4J04da6EGf_3rlg9log_levelNtB5_8LogLevelNtNtCs7dTDQl1DYhd_4core3fmt7Display3fmt
FNDA:2,_RNvXs5_NtCsj4J04da6EGf_3rlg9log_levelNtB5_8LogLevelNtNtCs7dTDQl1DYhd_4core7default7Default7default
FNDA:3,_RNvXs_NtCsj4J04da6EGf_3rlg9log_levelNtB4_18ParseLogLevelErrorNtNtCs7dTDQl1DYhd_4core3fmt7Display3fmt
FNF:9
FNH:9
DA:27,12
DA:28,12
DA:29,12
DA:30,12
DA:31,12
DA:35,3
DA:36,3
DA:37,3
DA:95,57
DA:96,57
DA:97,9
DA:98,8
DA:99,40
DA:101,57
DA:112,153
DA:113,153
DA:114,11
DA:115,10
DA:116,1
DA:117,27
DA:118,0
DA:119,0
DA:120,25
DA:121,24
DA:122,30
DA:123,0
DA:124,25
DA:126,153
DA:141,17
DA:142,17
DA:143,2
DA:144,1
DA:145,1
DA:146,1
DA:147,1
DA:148,1
DA:149,1
DA:150,1
DA:151,2
DA:152,1
DA:153,1
DA:154,4
DA:156,17
DA:162,61
DA:163,61
DA:164,61
DA:165,57
DA:166,52
DA:167,48
DA:168,41
DA:169,37
DA:170,33
DA:171,25
DA:172,20
DA:173,14
DA:174,10
DA:175,6
DA:177,61
DA:183,24
DA:184,24
DA:185,24
DA:189,84
DA:190,84
DA:191,2
DA:192,2
DA:193,2
DA:194,2
DA:195,2
DA:196,2
DA:197,58
DA:198,4
DA:199,7
DA:200,2
DA:201,1
DA:203,84
DA:204,84
DA:208,2
DA:209,2
DA:210,2
BRF:0
BRH:0
LF:79
LH:76
end_of_record
SF:/home/seb/Code/Public/Rust/rlg/src/utils.rs
FN:213,_RNCNvNtCs3sxNJrCz760_3rlg5utils14parse_datetime0B5_
FN:125,_RNvNtCs3sxNJrCz760_3rlg5utils13truncate_file
FN:211,_RNvNtCs3sxNJrCz760_3rlg5utils14parse_datetime
FN:176,_RNvNtCs3sxNJrCz760_3rlg5utils16format_file_size
FN:83,_RNvNtCs3sxNJrCz760_3rlg5utils16is_file_writable
FN:26,_RNvNtCs3sxNJrCz760_3rlg5utils18generate_timestamp
FN:241,_RNvNtCs3sxNJrCz760_3rlg5utils21is_directory_writable
FN:128,_RNCNvNtCs3sxNJrCz760_3rlg5utils13truncate_file0B5_
FN:83,_RNCNvNtCs3sxNJrCz760_3rlg5utils16is_file_writable0B5_
FN:55,_RNCNvNtCs3sxNJrCz760_3rlg5utils20sanitize_log_message0B5_
FN:241,_RNCNvNtCs3sxNJrCz760_3rlg5utils21is_directory_writable0B5_
FN:51,_RNvNtCs3sxNJrCz760_3rlg5utils20sanitize_log_message
FN:128,_RNCNvNtCsj4J04da6EGf_3rlg5utils13truncate_file0B5_
FN:213,_RNCNvNtCsj4J04da6EGf_3rlg5utils14parse_datetime0B5_
FN:83,_RNCNvNtCsj4J04da6EGf_3rlg5utils16is_file_writable0B5_
FN:55,_RNCNvNtCsj4J04da6EGf_3rlg5utils20sanitize_log_message0B5_
FN:241,_RNCNvNtCsj4J04da6EGf_3rlg5utils21is_directory_writable0B5_
FN:125,_RNvNtCsj4J04da6EGf_3rlg5utils13truncate_file
FN:211,_RNvNtCsj4J04da6EGf_3rlg5utils14parse_datetime
FN:176,_RNvNtCsj4J04da6EGf_3rlg5utils16format_file_size
FN:83,_RNvNtCsj4J04da6EGf_3rlg5utils16is_file_writable
FN:26,_RNvNtCsj4J04da6EGf_3rlg5utils18generate_timestamp
FN:51,_RNvNtCsj4J04da6EGf_3rlg5utils20sanitize_log_message
FN:241,_RNvNtCsj4J04da6EGf_3rlg5utils21is_directory_writable
FNDA:0,_RNCNvNtCs3sxNJrCz760_3rlg5utils14parse_datetime0B5_
FNDA:0,_RNvNtCs3sxNJrCz760_3rlg5utils13truncate_file
FNDA:0,_RNvNtCs3sxNJrCz760_3rlg5utils14parse_datetime
FNDA:0,_RNvNtCs3sxNJrCz760_3rlg5utils16format_file_size
FNDA:0,_RNvNtCs3sxNJrCz760_3rlg5utils16is_file_writable
FNDA:0,_RNvNtCs3sxNJrCz760_3rlg5utils18generate_timestamp
FNDA:0,_RNvNtCs3sxNJrCz760_3rlg5utils21is_directory_writable
FNDA:0,_RNCNvNtCs3sxNJrCz760_3rlg5utils13truncate_file0B5_
FNDA:0,_RNCNvNtCs3sxNJrCz760_3rlg5utils16is_file_writable0B5_
FNDA:153,_RNCNvNtCs3sxNJrCz760_3rlg5utils20sanitize_log_message0B5_
FNDA:0,_RNCNvNtCs3sxNJrCz760_3rlg5utils21is_directory_writable0B5_
FNDA:2,_RNvNtCs3sxNJrCz760_3rlg5utils20sanitize_log_message
FNDA:2,_RNCNvNtCsj4J04da6EGf_3rlg5utils13truncate_file0B5_
FNDA:1,_RNCNvNtCsj4J04da6EGf_3rlg5utils14parse_datetime0B5_
FNDA:3,_RNCNvNtCsj4J04da6EGf_3rlg5utils16is_file_writable0B5_
FNDA:235,_RNCNvNtCsj4J04da6EGf_3rlg5utils20sanitize_log_message0B5_
FNDA:2,_RNCNvNtCsj4J04da6EGf_3rlg5utils21is_directory_writable0B5_
FNDA:2,_RNvNtCsj4J04da6EGf_3rlg5utils13truncate_file
FNDA:2,_RNvNtCsj4J04da6EGf_3rlg5utils14parse_datetime
FNDA:4,_RNvNtCsj4J04da6EGf_3rlg5utils16format_file_size
FNDA:3,_RNvNtCsj4J04da6EGf_3rlg5utils16is_file_writable
FNDA:0,_RNvNtCsj4J04da6EGf_3rlg5utils18generate_timestamp
FNDA:6,_RNvNtCsj4J04da6EGf_3rlg5utils20sanitize_log_message
FNDA:2,_RNvNtCsj4J04da6EGf_3rlg5utils21is_directory_writable
FNF:12
FNH:11
DA:26,0
DA:27,0
DA:28,0
DA:51,8
DA:52,8
DA:53,8
DA:54,8
DA:55,388
DA:56,8
DA:83,3
DA:84,3
DA:85,2
DA:86,2
DA:89,1
DA:91,1
DA:92,1
DA:94,0
DA:97,3
DA:125,2
DA:126,2
DA:127,2
DA:128,2
DA:129,2
DA:130,2
DA:131,2
DA:132,2
DA:133,2
DA:134,2
DA:135,2
DA:137,2
DA:139,2
DA:141,1
DA:142,1
DA:145,1
DA:148,1
DA:149,1
DA:152,2
DA:154,2
DA:155,2
DA:176,4
DA:178,4
DA:179,4
DA:181,10
DA:182,6
DA:183,6
DA:184,6
DA:186,4
DA:187,4
DA:211,2
DA:212,2
DA:213,2
DA:214,2
DA:241,2
DA:242,2
DA:243,1
DA:244,1
DA:246,1
DA:247,1
DA:249,1
DA:250,1
DA:252,0
DA:254,2
BRF:0
BRH:0
LF:67
LH:62
end_of_record